
FPGA_Ram.elf:     file format elf32-tradlittlemips


Disassembly of section .bootrom:

9fc00000 <__reset_vector>:
9fc00000:	3c069fc0 	lui	a2,0x9fc0
9fc00004:	24c60014 	addiu	a2,a2,20
9fc00008:	00c00008 	jr	a2
9fc0000c:	40804800 	mtc0	zero,c0_count
9fc00010:	00000000 	nop

9fc00014 <__cpu_init>:
9fc00014:	40116000 	mfc0	s1,c0_status
9fc00018:	7e3104c0 	ext	s1,s1,0x13,0x1
9fc0001c:	12200002 	beqz	s1,9fc00028 <init_resources>
9fc00020:	00000000 	nop
9fc00024:	7000003f 	sdbbp

9fc00028 <init_resources>:
9fc00028:	3c069fc0 	lui	a2,0x9fc0
9fc0002c:	24c60288 	addiu	a2,a2,648
9fc00030:	00c0f809 	jalr	a2
9fc00034:	00000000 	nop
9fc00038:	3c069fc0 	lui	a2,0x9fc0
9fc0003c:	24c60308 	addiu	a2,a2,776
9fc00040:	00c0f809 	jalr	a2
9fc00044:	00000000 	nop
9fc00048:	3c069fc0 	lui	a2,0x9fc0
9fc0004c:	24c600a8 	addiu	a2,a2,168
9fc00050:	00c0f809 	jalr	a2
9fc00054:	00000000 	nop
9fc00058:	3c069fc0 	lui	a2,0x9fc0
9fc0005c:	24c60160 	addiu	a2,a2,352
9fc00060:	2405000f 	li	a1,15
9fc00064:	7ca6ef44 	ins	a2,a1,0x1d,0x1
9fc00068:	00c0f809 	jalr	a2
9fc0006c:	00000000 	nop
9fc00070:	3c069fc0 	lui	a2,0x9fc0
9fc00074:	24c60100 	addiu	a2,a2,256
9fc00078:	00c0f809 	jalr	a2
9fc0007c:	00000000 	nop
9fc00080:	3c1f9fc0 	lui	ra,0x9fc0
9fc00084:	27ff00a0 	addiu	ra,ra,160
9fc00088:	00002021 	move	a0,zero
9fc0008c:	3c028000 	lui	v0,0x8000
9fc00090:	2442021c 	addiu	v0,v0,540
9fc00094:	4082f000 	mtc0	v0,c0_errorepc
9fc00098:	000000c0 	ehb
9fc0009c:	42000018 	eret

9fc000a0 <all_done>:
9fc000a0:	1000ffff 	b	9fc000a0 <all_done>
9fc000a4:	00000000 	nop

9fc000a8 <init_icache>:
9fc000a8:	40028001 	mfc0	v0,c0_config1
9fc000ac:	7c4314c0 	ext	v1,v0,0x13,0x3
9fc000b0:	10600011 	beqz	v1,9fc000f8 <done_icache>
9fc000b4:	00000000 	nop
9fc000b8:	24060002 	li	a2,2
9fc000bc:	00661804 	sllv	v1,a2,v1
9fc000c0:	7c441580 	ext	a0,v0,0x16,0x3
9fc000c4:	24060040 	li	a2,64
9fc000c8:	00862004 	sllv	a0,a2,a0
9fc000cc:	7c451400 	ext	a1,v0,0x10,0x3
9fc000d0:	20a50001 	addi	a1,a1,1
9fc000d4:	70852002 	mul	a0,a0,a1
9fc000d8:	3c068000 	lui	a2,0x8000
9fc000dc:	4080e000 	mtc0	zero,c0_taglo
9fc000e0:	4080e800 	mtc0	zero,c0_taghi
9fc000e4:	00803821 	move	a3,a0

9fc000e8 <next_icache_tag>:
9fc000e8:	bcc80000 	cache	0x8,0(a2)
9fc000ec:	20e7ffff 	addi	a3,a3,-1
9fc000f0:	14e0fffd 	bnez	a3,9fc000e8 <next_icache_tag>
9fc000f4:	00c33020 	add	a2,a2,v1

9fc000f8 <done_icache>:
9fc000f8:	03e00008 	jr	ra
9fc000fc:	00000000 	nop

9fc00100 <init_dcache>:
9fc00100:	40028001 	mfc0	v0,c0_config1
9fc00104:	7c431280 	ext	v1,v0,0xa,0x3
9fc00108:	10600013 	beqz	v1,9fc00158 <done_dcache>
9fc0010c:	00000000 	nop
9fc00110:	24060002 	li	a2,2
9fc00114:	00661804 	sllv	v1,a2,v1
9fc00118:	7c441340 	ext	a0,v0,0xd,0x3
9fc0011c:	24060040 	li	a2,64
9fc00120:	00862004 	sllv	a0,a2,a0
9fc00124:	7c4511c0 	ext	a1,v0,0x7,0x3
9fc00128:	20a50001 	addi	a1,a1,1
9fc0012c:	70852002 	mul	a0,a0,a1
9fc00130:	3c068000 	lui	a2,0x8000
9fc00134:	4080e000 	mtc0	zero,c0_taglo
9fc00138:	4080e800 	mtc0	zero,c0_taghi
9fc0013c:	4080e002 	mtc0	zero,c0_taglo1
9fc00140:	4080e802 	mtc0	zero,c0_taghi1
9fc00144:	00803821 	move	a3,a0

9fc00148 <next_dcache_tag>:
9fc00148:	bcc90000 	cache	0x9,0(a2)
9fc0014c:	20e7ffff 	addi	a3,a3,-1
9fc00150:	14e0fffd 	bnez	a3,9fc00148 <next_dcache_tag>
9fc00154:	00c33020 	add	a2,a2,v1

9fc00158 <done_dcache>:
9fc00158:	03e00008 	jr	ra
9fc0015c:	00000000 	nop

9fc00160 <change_k0_cca>:
9fc00160:	40028000 	mfc0	v0,c0_config
9fc00164:	24030003 	li	v1,3
9fc00168:	7c621004 	ins	v0,v1,0x0,0x3
9fc0016c:	40828000 	mtc0	v0,c0_config
9fc00170:	03e00408 	jr.hb	ra
9fc00174:	00000000 	nop
9fc00178:	00000000 	nop
9fc0017c:	00000000 	nop
9fc00180:	00000000 	nop
9fc00184:	00000000 	nop
9fc00188:	00000000 	nop
9fc0018c:	00000000 	nop
9fc00190:	00000000 	nop
9fc00194:	00000000 	nop
9fc00198:	00000000 	nop
9fc0019c:	00000000 	nop
9fc001a0:	00000000 	nop
9fc001a4:	00000000 	nop
9fc001a8:	00000000 	nop
9fc001ac:	00000000 	nop
9fc001b0:	00000000 	nop
9fc001b4:	00000000 	nop
9fc001b8:	00000000 	nop
9fc001bc:	00000000 	nop
9fc001c0:	00000000 	nop
9fc001c4:	00000000 	nop
9fc001c8:	00000000 	nop
9fc001cc:	00000000 	nop
9fc001d0:	00000000 	nop
9fc001d4:	00000000 	nop
9fc001d8:	00000000 	nop
9fc001dc:	00000000 	nop
9fc001e0:	00000000 	nop
9fc001e4:	00000000 	nop
9fc001e8:	00000000 	nop
9fc001ec:	00000000 	nop
9fc001f0:	00000000 	nop
9fc001f4:	00000000 	nop
9fc001f8:	00000000 	nop
9fc001fc:	00000000 	nop
9fc00200:	7000003f 	sdbbp
9fc00204:	00000000 	nop
9fc00208:	00000000 	nop
9fc0020c:	00000000 	nop
9fc00210:	00000000 	nop
9fc00214:	00000000 	nop
9fc00218:	00000000 	nop
9fc0021c:	00000000 	nop
9fc00220:	00000000 	nop
9fc00224:	00000000 	nop
9fc00228:	00000000 	nop
9fc0022c:	00000000 	nop
9fc00230:	00000000 	nop
9fc00234:	00000000 	nop
9fc00238:	00000000 	nop
9fc0023c:	00000000 	nop
9fc00240:	00000000 	nop
9fc00244:	00000000 	nop
9fc00248:	00000000 	nop
9fc0024c:	00000000 	nop
9fc00250:	00000000 	nop
9fc00254:	00000000 	nop
9fc00258:	00000000 	nop
9fc0025c:	00000000 	nop
9fc00260:	00000000 	nop
9fc00264:	00000000 	nop
9fc00268:	00000000 	nop
9fc0026c:	00000000 	nop
9fc00270:	00000000 	nop
9fc00274:	00000000 	nop
9fc00278:	00000000 	nop
9fc0027c:	00000000 	nop
9fc00280:	7000003f 	sdbbp
9fc00284:	00000000 	nop

9fc00288 <init_cp0>:
9fc00288:	3c030040 	lui	v1,0x40
9fc0028c:	34630404 	ori	v1,v1,0x404
9fc00290:	40836000 	mtc0	v1,c0_status
9fc00294:	40028001 	mfc0	v0,c0_config1
9fc00298:	7c4300c0 	ext	v1,v0,0x3,0x1
9fc0029c:	10600011 	beqz	v1,9fc002e4 <done_wr>
9fc002a0:	24030007 	li	v1,7
9fc002a4:	40839800 	mtc0	v1,c0_watchhi
9fc002a8:	40809000 	mtc0	zero,c0_watchlo
9fc002ac:	40839801 	mtc0	v1,c0_watchhi,1
9fc002b0:	40809001 	mtc0	zero,c0_watchlo,1
9fc002b4:	40839802 	mtc0	v1,c0_watchhi,2
9fc002b8:	40809002 	mtc0	zero,c0_watchlo,2
9fc002bc:	40839803 	mtc0	v1,c0_watchhi,3
9fc002c0:	40809003 	mtc0	zero,c0_watchlo,3
9fc002c4:	40839804 	mtc0	v1,c0_watchhi,4
9fc002c8:	40809004 	mtc0	zero,c0_watchlo,4
9fc002cc:	40839805 	mtc0	v1,c0_watchhi,5
9fc002d0:	40809005 	mtc0	zero,c0_watchlo,5
9fc002d4:	40839806 	mtc0	v1,c0_watchhi,6
9fc002d8:	40809006 	mtc0	zero,c0_watchlo,6
9fc002dc:	40839807 	mtc0	v1,c0_watchhi,7
9fc002e0:	40809007 	mtc0	zero,c0_watchlo,7

9fc002e4 <done_wr>:
9fc002e4:	40806800 	mtc0	zero,c0_cause
9fc002e8:	40805800 	mtc0	zero,c0_compare
9fc002ec:	03e00008 	jr	ra
9fc002f0:	00000000 	nop
9fc002f4:	00000000 	nop
9fc002f8:	00000000 	nop
9fc002fc:	00000000 	nop
9fc00300:	7000003f 	sdbbp
9fc00304:	00000000 	nop

9fc00308 <init_tlb>:
9fc00308:	40038000 	mfc0	v1,c0_config
9fc0030c:	7c6311c0 	ext	v1,v1,0x7,0x3
9fc00310:	24070001 	li	a3,1
9fc00314:	1467000f 	bne	v1,a3,9fc00354 <done_init_tlb>
9fc00318:	40028001 	mfc0	v0,c0_config1
9fc0031c:	00000000 	nop

9fc00320 <start_init_tlb>:
9fc00320:	7c432e40 	ext	v1,v0,0x19,0x6
9fc00324:	40801000 	mtc0	zero,c0_entrylo0
9fc00328:	40801800 	mtc0	zero,c0_entrylo1
9fc0032c:	40802800 	mtc0	zero,c0_pagemask
9fc00330:	40803000 	mtc0	zero,c0_wired
9fc00334:	3c048000 	lui	a0,0x8000

9fc00338 <next_tlb_entry_pair>:
9fc00338:	40830000 	mtc0	v1,c0_index
9fc0033c:	40845000 	mtc0	a0,c0_entryhi
9fc00340:	000000c0 	ehb
9fc00344:	42000002 	tlbwi
9fc00348:	20844000 	addi	a0,a0,16384
9fc0034c:	1460fffa 	bnez	v1,9fc00338 <next_tlb_entry_pair>
9fc00350:	2063ffff 	addi	v1,v1,-1

9fc00354 <done_init_tlb>:
9fc00354:	03e00008 	jr	ra
9fc00358:	00000000 	nop
9fc0035c:	00000000 	nop
9fc00360:	00000000 	nop
9fc00364:	00000000 	nop
9fc00368:	00000000 	nop
9fc0036c:	00000000 	nop
9fc00370:	00000000 	nop
9fc00374:	00000000 	nop
9fc00378:	00000000 	nop
9fc0037c:	00000000 	nop
9fc00380:	3c1abf80 	lui	k0,0xbf80
9fc00384:	241b5555 	li	k1,21845
9fc00388:	af5b0000 	sw	k1,0(k0)
9fc0038c:	42000018 	eret
9fc00390:	00000000 	nop
9fc00394:	00000000 	nop
9fc00398:	00000000 	nop
9fc0039c:	00000000 	nop
9fc003a0:	00000000 	nop
9fc003a4:	00000000 	nop
9fc003a8:	00000000 	nop
9fc003ac:	00000000 	nop
9fc003b0:	00000000 	nop
9fc003b4:	00000000 	nop
9fc003b8:	00000000 	nop
9fc003bc:	00000000 	nop
9fc003c0:	00000000 	nop
9fc003c4:	00000000 	nop
9fc003c8:	00000000 	nop
9fc003cc:	00000000 	nop
9fc003d0:	00000000 	nop
9fc003d4:	00000000 	nop
9fc003d8:	00000000 	nop
9fc003dc:	00000000 	nop
9fc003e0:	00000000 	nop
9fc003e4:	00000000 	nop
9fc003e8:	00000000 	nop
9fc003ec:	00000000 	nop
9fc003f0:	00000000 	nop
9fc003f4:	00000000 	nop
9fc003f8:	00000000 	nop
9fc003fc:	00000000 	nop
9fc00400:	00000000 	nop
9fc00404:	00000000 	nop
9fc00408:	00000000 	nop
9fc0040c:	00000000 	nop
9fc00410:	00000000 	nop
9fc00414:	00000000 	nop
9fc00418:	00000000 	nop
9fc0041c:	00000000 	nop
9fc00420:	00000000 	nop
9fc00424:	00000000 	nop
9fc00428:	00000000 	nop
9fc0042c:	00000000 	nop
9fc00430:	00000000 	nop
9fc00434:	00000000 	nop
9fc00438:	00000000 	nop
9fc0043c:	00000000 	nop
9fc00440:	00000000 	nop
9fc00444:	00000000 	nop
9fc00448:	00000000 	nop
9fc0044c:	00000000 	nop
9fc00450:	00000000 	nop
9fc00454:	00000000 	nop
9fc00458:	00000000 	nop
9fc0045c:	00000000 	nop
9fc00460:	00000000 	nop
9fc00464:	00000000 	nop
9fc00468:	00000000 	nop
9fc0046c:	00000000 	nop
9fc00470:	00000000 	nop
9fc00474:	00000000 	nop
9fc00478:	00000000 	nop
9fc0047c:	00000000 	nop
9fc00480:	3c18bf80 	lui	t8,0xbf80
9fc00484:	4084f800 	mtc0	a0,c0_desave
9fc00488:	4004c000 	mfc0	a0,c0_depc
9fc0048c:	af040000 	sw	a0,0(t8)
9fc00490:	4004f800 	mfc0	a0,c0_desave
9fc00494:	1000ffff 	b	9fc00494 <done_init_tlb+0x140>
9fc00498:	00000000 	nop
9fc0049c:	00000000 	nop

Disassembly of section .exception_vector:

80000000 <__exception_entry>:
80000000:	3c1b8000 	lui	k1,0x8000
80000004:	277b1fc4 	addiu	k1,k1,8132
80000008:	8f7b0000 	lw	k1,0(k1)
8000000c:	13600003 	beqz	k1,8000001c <__exception_entry+0x1c>
80000010:	00000000 	nop
80000014:	08000087 	j	8000021c <_start>
80000018:	00000000 	nop
8000001c:	3c1b8000 	lui	k1,0x8000
80000020:	277b14b8 	addiu	k1,k1,5304
80000024:	1360fff6 	beqz	k1,80000000 <__exception_entry>
80000028:	00000000 	nop
8000002c:	03600008 	jr	k1
80000030:	00000000 	nop
80000034:	00000000 	nop
80000038:	00000000 	nop
8000003c:	00000000 	nop
80000040:	00000000 	nop
80000044:	00000000 	nop
80000048:	00000000 	nop
8000004c:	00000000 	nop
80000050:	00000000 	nop
80000054:	00000000 	nop
80000058:	00000000 	nop
8000005c:	00000000 	nop
80000060:	00000000 	nop
80000064:	00000000 	nop
80000068:	00000000 	nop
8000006c:	00000000 	nop
80000070:	00000000 	nop
80000074:	00000000 	nop
80000078:	00000000 	nop
8000007c:	00000000 	nop

80000080 <__xtlb_refill_loop>:
80000080:	3c1b8000 	lui	k1,0x8000
80000084:	277b14b8 	addiu	k1,k1,5304
80000088:	1360fffd 	beqz	k1,80000080 <__xtlb_refill_loop>
8000008c:	00000000 	nop
80000090:	03600008 	jr	k1
80000094:	00000000 	nop
80000098:	00000000 	nop
8000009c:	00000000 	nop
800000a0:	00000000 	nop
800000a4:	00000000 	nop
800000a8:	00000000 	nop
800000ac:	00000000 	nop
800000b0:	00000000 	nop
800000b4:	00000000 	nop
800000b8:	00000000 	nop
800000bc:	00000000 	nop
800000c0:	00000000 	nop
800000c4:	00000000 	nop
800000c8:	00000000 	nop
800000cc:	00000000 	nop
800000d0:	00000000 	nop
800000d4:	00000000 	nop
800000d8:	00000000 	nop
800000dc:	00000000 	nop
800000e0:	00000000 	nop
800000e4:	00000000 	nop
800000e8:	00000000 	nop
800000ec:	00000000 	nop
800000f0:	00000000 	nop
800000f4:	00000000 	nop
800000f8:	00000000 	nop
800000fc:	00000000 	nop

80000100 <__cache_error_loop>:
80000100:	3c1b0000 	lui	k1,0x0
80000104:	277b0000 	addiu	k1,k1,0
80000108:	1360fffd 	beqz	k1,80000100 <__cache_error_loop>
8000010c:	00000000 	nop
80000110:	03600008 	jr	k1
80000114:	00000000 	nop
80000118:	00000000 	nop
8000011c:	00000000 	nop
80000120:	00000000 	nop
80000124:	00000000 	nop
80000128:	00000000 	nop
8000012c:	00000000 	nop
80000130:	00000000 	nop
80000134:	00000000 	nop
80000138:	00000000 	nop
8000013c:	00000000 	nop
80000140:	00000000 	nop
80000144:	00000000 	nop
80000148:	00000000 	nop
8000014c:	00000000 	nop
80000150:	00000000 	nop
80000154:	00000000 	nop
80000158:	00000000 	nop
8000015c:	00000000 	nop
80000160:	00000000 	nop
80000164:	00000000 	nop
80000168:	00000000 	nop
8000016c:	00000000 	nop
80000170:	00000000 	nop
80000174:	00000000 	nop
80000178:	00000000 	nop
8000017c:	00000000 	nop
80000180:	afbbffc8 	sw	k1,-56(sp)
80000184:	3c1b8000 	lui	k1,0x8000
80000188:	277b14b8 	addiu	k1,k1,5304
8000018c:	03600008 	jr	k1
80000190:	00000000 	nop
80000194:	00000000 	nop
80000198:	00000000 	nop
8000019c:	00000000 	nop
800001a0:	00000000 	nop
800001a4:	00000000 	nop
800001a8:	00000000 	nop
800001ac:	00000000 	nop
800001b0:	00000000 	nop
800001b4:	00000000 	nop
800001b8:	00000000 	nop
800001bc:	00000000 	nop
800001c0:	00000000 	nop
800001c4:	00000000 	nop
800001c8:	00000000 	nop
800001cc:	00000000 	nop
800001d0:	00000000 	nop
800001d4:	00000000 	nop
800001d8:	00000000 	nop
800001dc:	00000000 	nop
800001e0:	00000000 	nop
800001e4:	00000000 	nop
800001e8:	00000000 	nop
800001ec:	00000000 	nop
800001f0:	00000000 	nop
800001f4:	00000000 	nop
800001f8:	00000000 	nop
800001fc:	00000000 	nop

80000200 <__interrupt_loop>:
80000200:	3c1b0000 	lui	k1,0x0
80000204:	277b0000 	addiu	k1,k1,0
80000208:	1360fffd 	beqz	k1,80000200 <__interrupt_loop>
8000020c:	00000000 	nop
80000210:	03600008 	jr	k1
80000214:	00000000 	nop

Disassembly of section .text:

80000218 <_ftext>:
80000218:	00000000 	nop

8000021c <_start>:
8000021c:	3c088000 	lui	t0,0x8000
80000220:	25081b48 	addiu	t0,t0,6984
80000224:	ad040000 	sw	a0,0(t0)
80000228:	ad050004 	sw	a1,4(t0)
8000022c:	ad060008 	sw	a2,8(t0)
80000230:	ad07000c 	sw	a3,12(t0)
80000234:	3c198000 	lui	t9,0x8000
80000238:	2739120c 	addiu	t9,t9,4620
8000023c:	13200006 	beqz	t9,80000258 <_start+0x3c>
80000240:	00000000 	nop
80000244:	03e02021 	move	a0,ra
80000248:	0320f809 	jalr	t9
8000024c:	00000000 	nop
80000250:	10000004 	b	80000264 <_start+0x48>
80000254:	00000000 	nop
80000258:	40806800 	mtc0	zero,c0_cause
8000025c:	00000000 	nop
80000260:	00001021 	move	v0,zero
80000264:	3c088000 	lui	t0,0x8000
80000268:	250816c8 	addiu	t0,t0,5832
8000026c:	3c098000 	lui	t1,0x8000
80000270:	252916e0 	addiu	t1,t1,5856
80000274:	2529ffe8 	addiu	t1,t1,-24
80000278:	15090021 	bne	t0,t1,80000300 <_start+0xe4>
8000027c:	00000000 	nop
80000280:	91090002 	lbu	t1,2(t0)
80000284:	2d230003 	sltiu	v1,t1,3
80000288:	10600003 	beqz	v1,80000298 <_start+0x7c>
8000028c:	39290040 	xori	t1,t1,0x40
80000290:	3c030010 	lui	v1,0x10
80000294:	00431025 	or	v0,v0,v1
80000298:	15200002 	bnez	t1,800002a4 <_start+0x88>
8000029c:	240300e0 	li	v1,224
800002a0:	00431025 	or	v0,v0,v1
800002a4:	8d09000c 	lw	t1,12(t0)
800002a8:	31290013 	andi	t1,t1,0x13
800002ac:	11200002 	beqz	t1,800002b8 <_start+0x9c>
800002b0:	3c030100 	lui	v1,0x100
800002b4:	00431025 	or	v0,v0,v1
800002b8:	91090007 	lbu	t1,7(t0)
800002bc:	39290003 	xori	t1,t1,0x3
800002c0:	11200010 	beqz	t1,80000304 <_start+0xe8>
800002c4:	3c032000 	lui	v1,0x2000
800002c8:	00431025 	or	v0,v0,v1
800002cc:	91090005 	lbu	t1,5(t0)
800002d0:	39290002 	xori	t1,t1,0x2
800002d4:	15200002 	bnez	t1,800002e0 <_start+0xc4>
800002d8:	3c030400 	lui	v1,0x400
800002dc:	00431025 	or	v0,v0,v1
800002e0:	8d09000c 	lw	t1,12(t0)
800002e4:	31290200 	andi	t1,t1,0x200
800002e8:	11200006 	beqz	t1,80000304 <_start+0xe8>
800002ec:	3c030400 	lui	v1,0x400
800002f0:	00431025 	or	v0,v0,v1
800002f4:	3c030800 	lui	v1,0x800
800002f8:	10000002 	b	80000304 <_start+0xe8>
800002fc:	40838005 	mtc0	v1,$16,5
80000300:	24020000 	li	v0,0
80000304:	40826000 	mtc0	v0,c0_status
80000308:	00000000 	nop
8000030c:	3c080000 	lui	t0,0x0
80000310:	25080000 	addiu	t0,t0,0
80000314:	11000003 	beqz	t0,80000324 <_start+0x108>
80000318:	00000000 	nop
8000031c:	0100f809 	jalr	t0
80000320:	00000000 	nop
80000324:	3c028000 	lui	v0,0x8000
80000328:	24420334 	addiu	v0,v0,820
8000032c:	00400008 	jr	v0
80000330:	00000000 	nop
80000334:	3c1c8001 	lui	gp,0x8001
80000338:	279c9fc8 	addiu	gp,gp,-24632

8000033c <zerobss>:
8000033c:	3c028000 	lui	v0,0x8000
80000340:	24421fd4 	addiu	v0,v0,8148
80000344:	3c038000 	lui	v1,0x8000
80000348:	24632110 	addiu	v1,v1,8464
8000034c:	10430004 	beq	v0,v1,80000360 <zerobss+0x24>
80000350:	00000000 	nop
80000354:	24420004 	addiu	v0,v0,4
80000358:	1443fffe 	bne	v0,v1,80000354 <zerobss+0x18>
8000035c:	ac40fffc 	sw	zero,-4(v0)
80000360:	3c088004 	lui	t0,0x8004
80000364:	25080000 	addiu	t0,t0,0
80000368:	1500000c 	bnez	t0,8000039c <zerobss+0x60>
8000036c:	00000000 	nop
80000370:	3c088000 	lui	t0,0x8000
80000374:	25082010 	addiu	t0,t0,8208
80000378:	251d0100 	addiu	sp,t0,256
8000037c:	3c048000 	lui	a0,0x8000
80000380:	0c0002a3 	jal	80000a8c <get_mem_info>
80000384:	24842000 	addiu	a0,a0,8192
80000388:	3c048000 	lui	a0,0x8000
8000038c:	24842000 	addiu	a0,a0,8192
80000390:	8c880000 	lw	t0,0(a0)
80000394:	3c098000 	lui	t1,0x8000
80000398:	01094021 	addu	t0,t0,t1
8000039c:	2508ffc0 	addiu	t0,t0,-64
800003a0:	0100e821 	move	sp,t0

800003a4 <init>:
800003a4:	3c190000 	lui	t9,0x0
800003a8:	27390000 	addiu	t9,t9,0
800003ac:	13200003 	beqz	t9,800003bc <init+0x18>
800003b0:	00000000 	nop
800003b4:	0320f809 	jalr	t9
800003b8:	00000000 	nop
800003bc:	3c190000 	lui	t9,0x0
800003c0:	27390000 	addiu	t9,t9,0
800003c4:	13200003 	beqz	t9,800003d4 <init+0x30>
800003c8:	00000000 	nop
800003cc:	0320f809 	jalr	t9
800003d0:	00000000 	nop
800003d4:	3c048000 	lui	a0,0x8000
800003d8:	24841694 	addiu	a0,a0,5780
800003dc:	0c0001cf 	jal	8000073c <atexit>
800003e0:	00000000 	nop
800003e4:	0c00059c 	jal	80001670 <_init>
800003e8:	00000000 	nop
800003ec:	3c088000 	lui	t0,0x8000
800003f0:	25081b48 	addiu	t0,t0,6984
800003f4:	8d040000 	lw	a0,0(t0)
800003f8:	8d050004 	lw	a1,4(t0)
800003fc:	8d060008 	lw	a2,8(t0)
80000400:	1c800013 	bgtz	a0,80000450 <init+0xac>
80000404:	8d07000c 	lw	a3,12(t0)
80000408:	1080000c 	beqz	a0,8000043c <init+0x98>
8000040c:	00000000 	nop
80000410:	2884ffff 	slti	a0,a0,-1
80000414:	14800009 	bnez	a0,8000043c <init+0x98>
80000418:	00000000 	nop
8000041c:	3c088000 	lui	t0,0x8000
80000420:	25080a9c 	addiu	t0,t0,2716
80000424:	11000005 	beqz	t0,8000043c <init+0x98>
80000428:	00000000 	nop
8000042c:	0100f809 	jalr	t0
80000430:	00000000 	nop
80000434:	10000006 	b	80000450 <init+0xac>
80000438:	00000000 	nop
8000043c:	00002021 	move	a0,zero
80000440:	27a50020 	addiu	a1,sp,32
80000444:	27a60028 	addiu	a2,sp,40
80000448:	aca00000 	sw	zero,0(a1)
8000044c:	acc00000 	sw	zero,0(a2)
80000450:	0c000191 	jal	80000644 <main>
80000454:	00000000 	nop
80000458:	0c0001d9 	jal	80000764 <exit>
8000045c:	00402021 	move	a0,v0

80000460 <_exit>:
80000460:	3c088000 	lui	t0,0x8000
80000464:	25081b48 	addiu	t0,t0,6984
80000468:	ad040000 	sw	a0,0(t0)
8000046c:	3c080000 	lui	t0,0x0
80000470:	25080000 	addiu	t0,t0,0
80000474:	11000003 	beqz	t0,80000484 <_exit+0x24>
80000478:	00000000 	nop
8000047c:	0100f809 	jalr	t0
80000480:	00000000 	nop
80000484:	3c088000 	lui	t0,0x8000
80000488:	25081b48 	addiu	t0,t0,6984
8000048c:	0c00028a 	jal	80000a28 <__exit>
80000490:	8d040000 	lw	a0,0(t0)
80000494:	03ff000d 	break	0x3ff
80000498:	1000fff1 	b	80000460 <_exit>
8000049c:	00000000 	nop

800004a0 <deregister_tm_clones>:
800004a0:	3c048000 	lui	a0,0x8000
800004a4:	3c028000 	lui	v0,0x8000
800004a8:	24841fc8 	addiu	a0,a0,8136
800004ac:	24421fcb 	addiu	v0,v0,8139
800004b0:	00441023 	subu	v0,v0,a0
800004b4:	2c420007 	sltiu	v0,v0,7
800004b8:	14400006 	bnez	v0,800004d4 <deregister_tm_clones+0x34>
800004bc:	3c190000 	lui	t9,0x0
800004c0:	27390000 	addiu	t9,t9,0
800004c4:	13200003 	beqz	t9,800004d4 <deregister_tm_clones+0x34>
800004c8:	00000000 	nop
800004cc:	03200008 	jr	t9
800004d0:	00000000 	nop
800004d4:	03e00008 	jr	ra
800004d8:	00000000 	nop

800004dc <register_tm_clones>:
800004dc:	3c048000 	lui	a0,0x8000
800004e0:	3c028000 	lui	v0,0x8000
800004e4:	24841fc8 	addiu	a0,a0,8136
800004e8:	24421fc8 	addiu	v0,v0,8136
800004ec:	00441023 	subu	v0,v0,a0
800004f0:	00021083 	sra	v0,v0,0x2
800004f4:	00022fc2 	srl	a1,v0,0x1f
800004f8:	00a22821 	addu	a1,a1,v0
800004fc:	00052843 	sra	a1,a1,0x1
80000500:	10a00006 	beqz	a1,8000051c <register_tm_clones+0x40>
80000504:	3c190000 	lui	t9,0x0
80000508:	27390000 	addiu	t9,t9,0
8000050c:	13200003 	beqz	t9,8000051c <register_tm_clones+0x40>
80000510:	00000000 	nop
80000514:	03200008 	jr	t9
80000518:	00000000 	nop
8000051c:	03e00008 	jr	ra
80000520:	00000000 	nop

80000524 <__do_global_dtors_aux>:
80000524:	27bdffd8 	addiu	sp,sp,-40
80000528:	afb10018 	sw	s1,24(sp)
8000052c:	3c118000 	lui	s1,0x8000
80000530:	afbf0024 	sw	ra,36(sp)
80000534:	afb30020 	sw	s3,32(sp)
80000538:	afb2001c 	sw	s2,28(sp)
8000053c:	afb00014 	sw	s0,20(sp)
80000540:	92221fe0 	lbu	v0,8160(s1)
80000544:	14400020 	bnez	v0,800005c8 <__do_global_dtors_aux+0xa4>
80000548:	3c028000 	lui	v0,0x8000
8000054c:	3c108000 	lui	s0,0x8000
80000550:	244216c0 	addiu	v0,v0,5824
80000554:	261016c4 	addiu	s0,s0,5828
80000558:	3c138000 	lui	s3,0x8000
8000055c:	02028023 	subu	s0,s0,v0
80000560:	00409021 	move	s2,v0
80000564:	00108083 	sra	s0,s0,0x2
80000568:	2610ffff 	addiu	s0,s0,-1
8000056c:	8e621fe4 	lw	v0,8164(s3)
80000570:	0050182b 	sltu	v1,v0,s0
80000574:	10600009 	beqz	v1,8000059c <__do_global_dtors_aux+0x78>
80000578:	24420001 	addiu	v0,v0,1
8000057c:	ae621fe4 	sw	v0,8164(s3)
80000580:	00021080 	sll	v0,v0,0x2
80000584:	02421021 	addu	v0,s2,v0
80000588:	8c420000 	lw	v0,0(v0)
8000058c:	0040f809 	jalr	v0
80000590:	00000000 	nop
80000594:	1000fff6 	b	80000570 <__do_global_dtors_aux+0x4c>
80000598:	8e621fe4 	lw	v0,8164(s3)
8000059c:	0c000128 	jal	800004a0 <deregister_tm_clones>
800005a0:	00000000 	nop
800005a4:	3c020000 	lui	v0,0x0
800005a8:	24420000 	addiu	v0,v0,0
800005ac:	10400005 	beqz	v0,800005c4 <__do_global_dtors_aux+0xa0>
800005b0:	24020001 	li	v0,1
800005b4:	3c048000 	lui	a0,0x8000
800005b8:	0c000000 	jal	80000000 <__exception_entry>
800005bc:	248416b0 	addiu	a0,a0,5808
800005c0:	24020001 	li	v0,1
800005c4:	a2221fe0 	sb	v0,8160(s1)
800005c8:	8fbf0024 	lw	ra,36(sp)
800005cc:	8fb30020 	lw	s3,32(sp)
800005d0:	8fb2001c 	lw	s2,28(sp)
800005d4:	8fb10018 	lw	s1,24(sp)
800005d8:	8fb00014 	lw	s0,20(sp)
800005dc:	03e00008 	jr	ra
800005e0:	27bd0028 	addiu	sp,sp,40

800005e4 <frame_dummy>:
800005e4:	3c020000 	lui	v0,0x0
800005e8:	27bdffe8 	addiu	sp,sp,-24
800005ec:	24420000 	addiu	v0,v0,0
800005f0:	10400006 	beqz	v0,8000060c <frame_dummy+0x28>
800005f4:	afbf0014 	sw	ra,20(sp)
800005f8:	3c048000 	lui	a0,0x8000
800005fc:	3c058000 	lui	a1,0x8000
80000600:	248416b0 	addiu	a0,a0,5808
80000604:	0c000000 	jal	80000000 <__exception_entry>
80000608:	24a51fe8 	addiu	a1,a1,8168
8000060c:	3c048000 	lui	a0,0x8000
80000610:	248416b4 	addiu	a0,a0,5812
80000614:	8c820000 	lw	v0,0(a0)
80000618:	10400008 	beqz	v0,8000063c <frame_dummy+0x58>
8000061c:	8fbf0014 	lw	ra,20(sp)
80000620:	3c020000 	lui	v0,0x0
80000624:	24420000 	addiu	v0,v0,0
80000628:	10400004 	beqz	v0,8000063c <frame_dummy+0x58>
8000062c:	00000000 	nop
80000630:	0040f809 	jalr	v0
80000634:	00000000 	nop
80000638:	8fbf0014 	lw	ra,20(sp)
8000063c:	08000137 	j	800004dc <register_tm_clones>
80000640:	27bd0018 	addiu	sp,sp,24

80000644 <main>:
80000644:	27bdffd8 	addiu	sp,sp,-40
80000648:	afbf0024 	sw	ra,36(sp)
8000064c:	afbe0020 	sw	s8,32(sp)
80000650:	03a0f021 	move	s8,sp
80000654:	3c02bf80 	lui	v0,0xbf80
80000658:	34420008 	ori	v0,v0,0x8
8000065c:	afc20010 	sw	v0,16(s8)
80000660:	3c02bf80 	lui	v0,0xbf80
80000664:	afc20014 	sw	v0,20(s8)
80000668:	8fc20010 	lw	v0,16(s8)
8000066c:	8c420000 	lw	v0,0(v0)
80000670:	afc20018 	sw	v0,24(s8)
80000674:	8fc20018 	lw	v0,24(s8)
80000678:	00401821 	move	v1,v0
8000067c:	8fc20014 	lw	v0,20(s8)
80000680:	ac430000 	sw	v1,0(v0)
80000684:	0c0001a9 	jal	800006a4 <delay>
80000688:	00000000 	nop
8000068c:	8fc20014 	lw	v0,20(s8)
80000690:	ac400000 	sw	zero,0(v0)
80000694:	0c0001a9 	jal	800006a4 <delay>
80000698:	00000000 	nop
8000069c:	1000fff2 	b	80000668 <main+0x24>
800006a0:	00000000 	nop

800006a4 <delay>:
800006a4:	27bdfff0 	addiu	sp,sp,-16
800006a8:	afbe000c 	sw	s8,12(sp)
800006ac:	03a0f021 	move	s8,sp
800006b0:	afc00000 	sw	zero,0(s8)
800006b4:	10000004 	b	800006c8 <delay+0x24>
800006b8:	00000000 	nop
800006bc:	8fc20000 	lw	v0,0(s8)
800006c0:	24420001 	addiu	v0,v0,1
800006c4:	afc20000 	sw	v0,0(s8)
800006c8:	8fc30000 	lw	v1,0(s8)
800006cc:	3c02000f 	lui	v0,0xf
800006d0:	34424240 	ori	v0,v0,0x4240
800006d4:	0062102b 	sltu	v0,v1,v0
800006d8:	1440fff8 	bnez	v0,800006bc <delay+0x18>
800006dc:	00000000 	nop
800006e0:	03c0e821 	move	sp,s8
800006e4:	8fbe000c 	lw	s8,12(sp)
800006e8:	27bd0010 	addiu	sp,sp,16
800006ec:	03e00008 	jr	ra
800006f0:	00000000 	nop

800006f4 <__do_global_ctors_aux>:
800006f4:	27bdffe0 	addiu	sp,sp,-32
800006f8:	afb00014 	sw	s0,20(sp)
800006fc:	3c108000 	lui	s0,0x8000
80000700:	afb10018 	sw	s1,24(sp)
80000704:	2411ffff 	li	s1,-1
80000708:	261016b8 	addiu	s0,s0,5816
8000070c:	afbf001c 	sw	ra,28(sp)
80000710:	8e020000 	lw	v0,0(s0)
80000714:	10510005 	beq	v0,s1,8000072c <__do_global_ctors_aux+0x38>
80000718:	8fbf001c 	lw	ra,28(sp)
8000071c:	0040f809 	jalr	v0
80000720:	2610fffc 	addiu	s0,s0,-4
80000724:	1000fffb 	b	80000714 <__do_global_ctors_aux+0x20>
80000728:	8e020000 	lw	v0,0(s0)
8000072c:	8fb10018 	lw	s1,24(sp)
80000730:	8fb00014 	lw	s0,20(sp)
80000734:	03e00008 	jr	ra
80000738:	27bd0020 	addiu	sp,sp,32

8000073c <atexit>:
8000073c:	27bdffe8 	addiu	sp,sp,-24
80000740:	00802821 	move	a1,a0
80000744:	00003021 	move	a2,zero
80000748:	afbf0014 	sw	ra,20(sp)
8000074c:	00002021 	move	a0,zero
80000750:	0c0001e8 	jal	800007a0 <__register_exitproc>
80000754:	00003821 	move	a3,zero
80000758:	8fbf0014 	lw	ra,20(sp)
8000075c:	03e00008 	jr	ra
80000760:	27bd0018 	addiu	sp,sp,24

80000764 <exit>:
80000764:	27bdffe8 	addiu	sp,sp,-24
80000768:	00002821 	move	a1,zero
8000076c:	afb00010 	sw	s0,16(sp)
80000770:	afbf0014 	sw	ra,20(sp)
80000774:	0c00022a 	jal	800008a8 <__call_exitprocs>
80000778:	00808021 	move	s0,a0
8000077c:	3c028000 	lui	v0,0x8000
80000780:	8c441fcc 	lw	a0,8140(v0)
80000784:	8c82003c 	lw	v0,60(a0)
80000788:	10400003 	beqz	v0,80000798 <exit+0x34>
8000078c:	00000000 	nop
80000790:	0040f809 	jalr	v0
80000794:	00000000 	nop
80000798:	0c000118 	jal	80000460 <_exit>
8000079c:	02002021 	move	a0,s0

800007a0 <__register_exitproc>:
800007a0:	3c028000 	lui	v0,0x8000
800007a4:	27bdffd8 	addiu	sp,sp,-40
800007a8:	afb00010 	sw	s0,16(sp)
800007ac:	8c501fcc 	lw	s0,8140(v0)
800007b0:	afb40020 	sw	s4,32(sp)
800007b4:	00c0a021 	move	s4,a2
800007b8:	afb3001c 	sw	s3,28(sp)
800007bc:	00e09821 	move	s3,a3
800007c0:	afb20018 	sw	s2,24(sp)
800007c4:	00a09021 	move	s2,a1
800007c8:	afb10014 	sw	s1,20(sp)
800007cc:	afbf0024 	sw	ra,36(sp)
800007d0:	8e020148 	lw	v0,328(s0)
800007d4:	14400003 	bnez	v0,800007e4 <__register_exitproc+0x44>
800007d8:	00808821 	move	s1,a0
800007dc:	2602014c 	addiu	v0,s0,332
800007e0:	ae020148 	sw	v0,328(s0)
800007e4:	8c430004 	lw	v1,4(v0)
800007e8:	28630020 	slti	v1,v1,32
800007ec:	1460000f 	bnez	v1,8000082c <__register_exitproc+0x8c>
800007f0:	00000000 	nop
800007f4:	3c020000 	lui	v0,0x0
800007f8:	24420000 	addiu	v0,v0,0
800007fc:	10400022 	beqz	v0,80000888 <__register_exitproc+0xe8>
80000800:	2402ffff 	li	v0,-1
80000804:	0c000000 	jal	80000000 <__exception_entry>
80000808:	24040190 	li	a0,400
8000080c:	5040001e 	beqzl	v0,80000888 <__register_exitproc+0xe8>
80000810:	2402ffff 	li	v0,-1
80000814:	8e030148 	lw	v1,328(s0)
80000818:	ac400004 	sw	zero,4(v0)
8000081c:	ac430000 	sw	v1,0(v0)
80000820:	ae020148 	sw	v0,328(s0)
80000824:	ac400188 	sw	zero,392(v0)
80000828:	ac40018c 	sw	zero,396(v0)
8000082c:	1220000f 	beqz	s1,8000086c <__register_exitproc+0xcc>
80000830:	8c430004 	lw	v1,4(v0)
80000834:	00034080 	sll	t0,v1,0x2
80000838:	24060001 	li	a2,1
8000083c:	00484021 	addu	t0,v0,t0
80000840:	00663004 	sllv	a2,a2,v1
80000844:	ad140088 	sw	s4,136(t0)
80000848:	24040002 	li	a0,2
8000084c:	8c490188 	lw	t1,392(v0)
80000850:	01264825 	or	t1,t1,a2
80000854:	ac490188 	sw	t1,392(v0)
80000858:	16240004 	bne	s1,a0,8000086c <__register_exitproc+0xcc>
8000085c:	ad130108 	sw	s3,264(t0)
80000860:	8c44018c 	lw	a0,396(v0)
80000864:	00863025 	or	a2,a0,a2
80000868:	ac46018c 	sw	a2,396(v0)
8000086c:	24640001 	addiu	a0,v1,1
80000870:	24630002 	addiu	v1,v1,2
80000874:	00031880 	sll	v1,v1,0x2
80000878:	ac440004 	sw	a0,4(v0)
8000087c:	00431021 	addu	v0,v0,v1
80000880:	ac520000 	sw	s2,0(v0)
80000884:	00001021 	move	v0,zero
80000888:	8fbf0024 	lw	ra,36(sp)
8000088c:	8fb40020 	lw	s4,32(sp)
80000890:	8fb3001c 	lw	s3,28(sp)
80000894:	8fb20018 	lw	s2,24(sp)
80000898:	8fb10014 	lw	s1,20(sp)
8000089c:	8fb00010 	lw	s0,16(sp)
800008a0:	03e00008 	jr	ra
800008a4:	27bd0028 	addiu	sp,sp,40

800008a8 <__call_exitprocs>:
800008a8:	3c028000 	lui	v0,0x8000
800008ac:	27bdffc0 	addiu	sp,sp,-64
800008b0:	8c421fcc 	lw	v0,8140(v0)
800008b4:	afb30024 	sw	s3,36(sp)
800008b8:	3c130000 	lui	s3,0x0
800008bc:	afb70034 	sw	s7,52(sp)
800008c0:	24170001 	li	s7,1
800008c4:	26730000 	addiu	s3,s3,0
800008c8:	afb60030 	sw	s6,48(sp)
800008cc:	afb40028 	sw	s4,40(sp)
800008d0:	0080b021 	move	s6,a0
800008d4:	afbf003c 	sw	ra,60(sp)
800008d8:	00a0a021 	move	s4,a1
800008dc:	afbe0038 	sw	s8,56(sp)
800008e0:	afb5002c 	sw	s5,44(sp)
800008e4:	afb20020 	sw	s2,32(sp)
800008e8:	afb1001c 	sw	s1,28(sp)
800008ec:	afb00018 	sw	s0,24(sp)
800008f0:	afa20010 	sw	v0,16(sp)
800008f4:	8fa20010 	lw	v0,16(sp)
800008f8:	24520148 	addiu	s2,v0,328
800008fc:	8c500148 	lw	s0,328(v0)
80000900:	1200003e 	beqz	s0,800009fc <__call_exitprocs+0x154>
80000904:	8fbf003c 	lw	ra,60(sp)
80000908:	8e110004 	lw	s1,4(s0)
8000090c:	2635ffff 	addiu	s5,s1,-1
80000910:	00118880 	sll	s1,s1,0x2
80000914:	02118821 	addu	s1,s0,s1
80000918:	06a0001e 	bltz	s5,80000994 <__call_exitprocs+0xec>
8000091c:	00000000 	nop
80000920:	52800005 	beqzl	s4,80000938 <__call_exitprocs+0x90>
80000924:	8e040004 	lw	a0,4(s0)
80000928:	8e230104 	lw	v1,260(s1)
8000092c:	54740017 	bnel	v1,s4,8000098c <__call_exitprocs+0xe4>
80000930:	26b5ffff 	addiu	s5,s5,-1
80000934:	8e040004 	lw	a0,4(s0)
80000938:	2484ffff 	addiu	a0,a0,-1
8000093c:	16a40003 	bne	s5,a0,8000094c <__call_exitprocs+0xa4>
80000940:	8e230004 	lw	v1,4(s1)
80000944:	10000002 	b	80000950 <__call_exitprocs+0xa8>
80000948:	ae150004 	sw	s5,4(s0)
8000094c:	ae200004 	sw	zero,4(s1)
80000950:	1060000d 	beqz	v1,80000988 <__call_exitprocs+0xe0>
80000954:	02b72004 	sllv	a0,s7,s5
80000958:	8e050188 	lw	a1,392(s0)
8000095c:	00852824 	and	a1,a0,a1
80000960:	14a0001a 	bnez	a1,800009cc <__call_exitprocs+0x124>
80000964:	8e1e0004 	lw	s8,4(s0)
80000968:	0060f809 	jalr	v1
8000096c:	00000000 	nop
80000970:	8e030004 	lw	v1,4(s0)
80000974:	17c3ffe0 	bne	s8,v1,800008f8 <__call_exitprocs+0x50>
80000978:	8fa20010 	lw	v0,16(sp)
8000097c:	8e430000 	lw	v1,0(s2)
80000980:	5470ffde 	bnel	v1,s0,800008fc <__call_exitprocs+0x54>
80000984:	24520148 	addiu	s2,v0,328
80000988:	26b5ffff 	addiu	s5,s5,-1
8000098c:	1000ffe2 	b	80000918 <__call_exitprocs+0x70>
80000990:	2631fffc 	addiu	s1,s1,-4
80000994:	12600019 	beqz	s3,800009fc <__call_exitprocs+0x154>
80000998:	8fbf003c 	lw	ra,60(sp)
8000099c:	8e030004 	lw	v1,4(s0)
800009a0:	14600007 	bnez	v1,800009c0 <__call_exitprocs+0x118>
800009a4:	8e020000 	lw	v0,0(s0)
800009a8:	10400005 	beqz	v0,800009c0 <__call_exitprocs+0x118>
800009ac:	02002021 	move	a0,s0
800009b0:	0c000000 	jal	80000000 <__exception_entry>
800009b4:	ae420000 	sw	v0,0(s2)
800009b8:	1000ffd1 	b	80000900 <__call_exitprocs+0x58>
800009bc:	8e500000 	lw	s0,0(s2)
800009c0:	02009021 	move	s2,s0
800009c4:	1000ffce 	b	80000900 <__call_exitprocs+0x58>
800009c8:	00408021 	move	s0,v0
800009cc:	8e06018c 	lw	a2,396(s0)
800009d0:	00863024 	and	a2,a0,a2
800009d4:	14c00005 	bnez	a2,800009ec <__call_exitprocs+0x144>
800009d8:	8e250084 	lw	a1,132(s1)
800009dc:	0060f809 	jalr	v1
800009e0:	02c02021 	move	a0,s6
800009e4:	1000ffe3 	b	80000974 <__call_exitprocs+0xcc>
800009e8:	8e030004 	lw	v1,4(s0)
800009ec:	0060f809 	jalr	v1
800009f0:	00a02021 	move	a0,a1
800009f4:	1000ffdf 	b	80000974 <__call_exitprocs+0xcc>
800009f8:	8e030004 	lw	v1,4(s0)
800009fc:	8fbe0038 	lw	s8,56(sp)
80000a00:	8fb70034 	lw	s7,52(sp)
80000a04:	8fb60030 	lw	s6,48(sp)
80000a08:	8fb5002c 	lw	s5,44(sp)
80000a0c:	8fb40028 	lw	s4,40(sp)
80000a10:	8fb30024 	lw	s3,36(sp)
80000a14:	8fb20020 	lw	s2,32(sp)
80000a18:	8fb1001c 	lw	s1,28(sp)
80000a1c:	8fb00018 	lw	s0,24(sp)
80000a20:	03e00008 	jr	ra
80000a24:	27bd0040 	addiu	sp,sp,64

80000a28 <__exit>:
80000a28:	27bdffe0 	addiu	sp,sp,-32
80000a2c:	afb00010 	sw	s0,16(sp)
80000a30:	3c100000 	lui	s0,0x0
80000a34:	afb20018 	sw	s2,24(sp)
80000a38:	24120002 	li	s2,2
80000a3c:	26100001 	addiu	s0,s0,1
80000a40:	afb10014 	sw	s1,20(sp)
80000a44:	afbf001c 	sw	ra,28(sp)
80000a48:	00808821 	move	s1,a0
80000a4c:	02202021 	move	a0,s1
80000a50:	24190001 	li	t9,1
80000a54:	24020001 	li	v0,1
80000a58:	0000004c 	syscall	0x1
80000a5c:	16120003 	bne	s0,s2,80000a6c <__exit+0x44>
80000a60:	24020001 	li	v0,1
80000a64:	0c0004b1 	jal	800012c4 <__return_to_boot>
80000a68:	02202021 	move	a0,s1
80000a6c:	1602fff8 	bne	s0,v0,80000a50 <__exit+0x28>
80000a70:	02202021 	move	a0,s1
80000a74:	0c000504 	jal	80001410 <__get_startup_BEV>
80000a78:	00000000 	nop
80000a7c:	1440fff4 	bnez	v0,80000a50 <__exit+0x28>
80000a80:	02202021 	move	a0,s1
80000a84:	1000fff7 	b	80000a64 <__exit+0x3c>
80000a88:	00000000 	nop

80000a8c <get_mem_info>:
80000a8c:	3c020002 	lui	v0,0x2
80000a90:	2442f800 	addiu	v0,v0,-2048
80000a94:	03e00008 	jr	ra
80000a98:	ac820000 	sw	v0,0(a0)

80000a9c <__getargs>:
80000a9c:	00004021 	move	t0,zero
80000aa0:	00004821 	move	t1,zero
80000aa4:	24190009 	li	t9,9
80000aa8:	24020001 	li	v0,1
80000aac:	0000004c 	syscall	0x1
80000ab0:	18400022 	blez	v0,80000b3c <__getargs+0xa0>
80000ab4:	00000000 	nop
80000ab8:	00404021 	move	t0,v0
80000abc:	00085880 	sll	t3,t0,0x2
80000ac0:	256b0007 	addiu	t3,t3,7
80000ac4:	2401fff8 	li	at,-8
80000ac8:	01615824 	and	t3,t3,at
80000acc:	03abe823 	subu	sp,sp,t3
80000ad0:	03a04821 	move	t1,sp
80000ad4:	00005021 	move	t2,zero
80000ad8:	2419000a 	li	t9,10
80000adc:	24020001 	li	v0,1
80000ae0:	01402021 	move	a0,t2
80000ae4:	0000004c 	syscall	0x1
80000ae8:	18400014 	blez	v0,80000b3c <__getargs+0xa0>
80000aec:	00000000 	nop
80000af0:	24420001 	addiu	v0,v0,1
80000af4:	24420007 	addiu	v0,v0,7
80000af8:	2401fff8 	li	at,-8
80000afc:	00411024 	and	v0,v0,at
80000b00:	03a2e823 	subu	sp,sp,v0
80000b04:	000a5880 	sll	t3,t2,0x2
80000b08:	01695821 	addu	t3,t3,t1
80000b0c:	ad7d0000 	sw	sp,0(t3)
80000b10:	2419000b 	li	t9,11
80000b14:	24020001 	li	v0,1
80000b18:	01402021 	move	a0,t2
80000b1c:	03a02821 	move	a1,sp
80000b20:	0000004c 	syscall	0x1
80000b24:	04400005 	bltz	v0,80000b3c <__getargs+0xa0>
80000b28:	00000000 	nop
80000b2c:	254a0001 	addiu	t2,t2,1
80000b30:	0148102a 	slt	v0,t2,t0
80000b34:	1440ffe8 	bnez	v0,80000ad8 <__getargs+0x3c>
80000b38:	00000000 	nop
80000b3c:	01002021 	move	a0,t0
80000b40:	01202821 	move	a1,t1
80000b44:	27bdffe0 	addiu	sp,sp,-32
80000b48:	27a60010 	addiu	a2,sp,16
80000b4c:	03e00008 	jr	ra
80000b50:	acc00000 	sw	zero,0(a2)

80000b54 <putsnds.constprop.0>:
80000b54:	27bdffd8 	addiu	sp,sp,-40
80000b58:	afb20020 	sw	s2,32(sp)
80000b5c:	00a09021 	move	s2,a1
80000b60:	afb1001c 	sw	s1,28(sp)
80000b64:	00808821 	move	s1,a0
80000b68:	afb00018 	sw	s0,24(sp)
80000b6c:	00c08021 	move	s0,a2
80000b70:	10800007 	beqz	a0,80000b90 <putsnds.constprop.0+0x3c>
80000b74:	afbf0024 	sw	ra,36(sp)
80000b78:	0c00050b 	jal	8000142c <strlen>
80000b7c:	00000000 	nop
80000b80:	24040001 	li	a0,1
80000b84:	02202821 	move	a1,s1
80000b88:	0c000512 	jal	80001448 <write>
80000b8c:	00403021 	move	a2,v0
80000b90:	3c048000 	lui	a0,0x8000
80000b94:	00001821 	move	v1,zero
80000b98:	2484175c 	addiu	a0,a0,5980
80000b9c:	24060008 	li	a2,8
80000ba0:	00031023 	negu	v0,v1
80000ba4:	27a50010 	addiu	a1,sp,16
80000ba8:	00021080 	sll	v0,v0,0x2
80000bac:	24630001 	addiu	v1,v1,1
80000bb0:	2442001c 	addiu	v0,v0,28
80000bb4:	00a33821 	addu	a3,a1,v1
80000bb8:	00521006 	srlv	v0,s2,v0
80000bbc:	3042000f 	andi	v0,v0,0xf
80000bc0:	00441021 	addu	v0,v0,a0
80000bc4:	90420000 	lbu	v0,0(v0)
80000bc8:	1466fff5 	bne	v1,a2,80000ba0 <putsnds.constprop.0+0x4c>
80000bcc:	a0e2ffff 	sb	v0,-1(a3)
80000bd0:	24040001 	li	a0,1
80000bd4:	0c000512 	jal	80001448 <write>
80000bd8:	24060008 	li	a2,8
80000bdc:	12000008 	beqz	s0,80000c00 <putsnds.constprop.0+0xac>
80000be0:	8fbf0024 	lw	ra,36(sp)
80000be4:	0c00050b 	jal	8000142c <strlen>
80000be8:	02002021 	move	a0,s0
80000bec:	24040001 	li	a0,1
80000bf0:	02002821 	move	a1,s0
80000bf4:	0c000512 	jal	80001448 <write>
80000bf8:	00403021 	move	a2,v0
80000bfc:	8fbf0024 	lw	ra,36(sp)
80000c00:	8fb20020 	lw	s2,32(sp)
80000c04:	8fb1001c 	lw	s1,28(sp)
80000c08:	8fb00018 	lw	s0,24(sp)
80000c0c:	03e00008 	jr	ra
80000c10:	27bd0028 	addiu	sp,sp,40

80000c14 <putsns>:
80000c14:	080002d5 	j	80000b54 <putsnds.constprop.0>
80000c18:	00000000 	nop

80000c1c <__exception_handle>:
80000c1c:	24a2ffff 	addiu	v0,a1,-1
80000c20:	27bdffe0 	addiu	sp,sp,-32
80000c24:	2c43001e 	sltiu	v1,v0,30
80000c28:	afb00010 	sw	s0,16(sp)
80000c2c:	00808021 	move	s0,a0
80000c30:	afbf001c 	sw	ra,28(sp)
80000c34:	afb20018 	sw	s2,24(sp)
80000c38:	1060009b 	beqz	v1,80000ea8 <__exception_handle+0x28c>
80000c3c:	afb10014 	sw	s1,20(sp)
80000c40:	00021880 	sll	v1,v0,0x2
80000c44:	3c028000 	lui	v0,0x8000
80000c48:	244216e0 	addiu	v0,v0,5856
80000c4c:	00431021 	addu	v0,v0,v1
80000c50:	8c420000 	lw	v0,0(v0)
80000c54:	00400008 	jr	v0
80000c58:	00000000 	nop
80000c5c:	3c058000 	lui	a1,0x8000
80000c60:	24040001 	li	a0,1
80000c64:	1000006b 	b	80000e14 <__exception_handle+0x1f8>
80000c68:	24a51770 	addiu	a1,a1,6000
80000c6c:	3c048000 	lui	a0,0x8000
80000c70:	10000006 	b	80000c8c <__exception_handle+0x70>
80000c74:	2484178c 	addiu	a0,a0,6028
80000c78:	3c048000 	lui	a0,0x8000
80000c7c:	10000003 	b	80000c8c <__exception_handle+0x70>
80000c80:	248417a8 	addiu	a0,a0,6056
80000c84:	3c048000 	lui	a0,0x8000
80000c88:	248417c4 	addiu	a0,a0,6084
80000c8c:	8e050080 	lw	a1,128(s0)
80000c90:	0c000305 	jal	80000c14 <putsns>
80000c94:	00003021 	move	a2,zero
80000c98:	3c048000 	lui	a0,0x8000
80000c9c:	1000006c 	b	80000e50 <__exception_handle+0x234>
80000ca0:	2484195c 	addiu	a0,a0,6492
80000ca4:	3c048000 	lui	a0,0x8000
80000ca8:	1000fff8 	b	80000c8c <__exception_handle+0x70>
80000cac:	248417e4 	addiu	a0,a0,6116
80000cb0:	3c058000 	lui	a1,0x8000
80000cb4:	24040001 	li	a0,1
80000cb8:	24a51804 	addiu	a1,a1,6148
80000cbc:	24060016 	li	a2,22
80000cc0:	0c000512 	jal	80001448 <write>
80000cc4:	3c118000 	lui	s1,0x8000
80000cc8:	1000007e 	b	80000ec4 <__exception_handle+0x2a8>
80000ccc:	3c048000 	lui	a0,0x8000
80000cd0:	3c058000 	lui	a1,0x8000
80000cd4:	24040001 	li	a0,1
80000cd8:	24a5181c 	addiu	a1,a1,6172
80000cdc:	1000fff8 	b	80000cc0 <__exception_handle+0xa4>
80000ce0:	2406000f 	li	a2,15
80000ce4:	3c020000 	lui	v0,0x0
80000ce8:	24030002 	li	v1,2
80000cec:	24420001 	addiu	v0,v0,1
80000cf0:	14430005 	bne	v0,v1,80000d08 <__exception_handle+0xec>
80000cf4:	24030001 	li	v1,1
80000cf8:	0c0004d6 	jal	80001358 <__chain_uhi_excpt>
80000cfc:	02002021 	move	a0,s0
80000d00:	1000013d 	b	800011f8 <__exception_handle+0x5dc>
80000d04:	8fbf001c 	lw	ra,28(sp)
80000d08:	54430006 	bnel	v0,v1,80000d24 <__exception_handle+0x108>
80000d0c:	8e04000c 	lw	a0,12(s0)
80000d10:	0c000504 	jal	80001410 <__get_startup_BEV>
80000d14:	00000000 	nop
80000d18:	1040fff7 	beqz	v0,80000cf8 <__exception_handle+0xdc>
80000d1c:	00000000 	nop
80000d20:	8e04000c 	lw	a0,12(s0)
80000d24:	24020001 	li	v0,1
80000d28:	8e050010 	lw	a1,16(s0)
80000d2c:	8e060014 	lw	a2,20(s0)
80000d30:	8e070018 	lw	a3,24(s0)
80000d34:	8e190060 	lw	t9,96(s0)
80000d38:	7000007f 	sdbbp	0x1
80000d3c:	ae020004 	sw	v0,4(s0)
80000d40:	8e02007c 	lw	v0,124(s0)
80000d44:	ae030008 	sw	v1,8(s0)
80000d48:	ae04000c 	sw	a0,12(s0)
80000d4c:	24420004 	addiu	v0,v0,4
80000d50:	ae050010 	sw	a1,16(s0)
80000d54:	10000127 	b	800011f4 <__exception_handle+0x5d8>
80000d58:	ae02007c 	sw	v0,124(s0)
80000d5c:	3c048000 	lui	a0,0x8000
80000d60:	1000003b 	b	80000e50 <__exception_handle+0x234>
80000d64:	2484182c 	addiu	a0,a0,6188
80000d68:	3c048000 	lui	a0,0x8000
80000d6c:	10000038 	b	80000e50 <__exception_handle+0x234>
80000d70:	2484183c 	addiu	a0,a0,6204
80000d74:	3c048000 	lui	a0,0x8000
80000d78:	10000035 	b	80000e50 <__exception_handle+0x234>
80000d7c:	24841854 	addiu	a0,a0,6228
80000d80:	3c058000 	lui	a1,0x8000
80000d84:	24040001 	li	a0,1
80000d88:	24a51870 	addiu	a1,a1,6256
80000d8c:	1000ffcc 	b	80000cc0 <__exception_handle+0xa4>
80000d90:	24060009 	li	a2,9
80000d94:	3c058000 	lui	a1,0x8000
80000d98:	24040001 	li	a0,1
80000d9c:	24a5187c 	addiu	a1,a1,6268
80000da0:	1000ffc7 	b	80000cc0 <__exception_handle+0xa4>
80000da4:	24060005 	li	a2,5
80000da8:	3c058000 	lui	a1,0x8000
80000dac:	24040001 	li	a0,1
80000db0:	24a51884 	addiu	a1,a1,6276
80000db4:	1000ffc2 	b	80000cc0 <__exception_handle+0xa4>
80000db8:	24060019 	li	a2,25
80000dbc:	3c058000 	lui	a1,0x8000
80000dc0:	24040001 	li	a0,1
80000dc4:	24a51888 	addiu	a1,a1,6280
80000dc8:	1000ffbd 	b	80000cc0 <__exception_handle+0xa4>
80000dcc:	24060015 	li	a2,21
80000dd0:	3c058000 	lui	a1,0x8000
80000dd4:	24040001 	li	a0,1
80000dd8:	10000004 	b	80000dec <__exception_handle+0x1d0>
80000ddc:	24a518a0 	addiu	a1,a1,6304
80000de0:	3c058000 	lui	a1,0x8000
80000de4:	24040001 	li	a0,1
80000de8:	24a518c8 	addiu	a1,a1,6344
80000dec:	1000ffb4 	b	80000cc0 <__exception_handle+0xa4>
80000df0:	24060027 	li	a2,39
80000df4:	3c058000 	lui	a1,0x8000
80000df8:	24040001 	li	a0,1
80000dfc:	24a518f0 	addiu	a1,a1,6384
80000e00:	1000ffaf 	b	80000cc0 <__exception_handle+0xa4>
80000e04:	24060020 	li	a2,32
80000e08:	3c058000 	lui	a1,0x8000
80000e0c:	24040001 	li	a0,1
80000e10:	24a51914 	addiu	a1,a1,6420
80000e14:	1000ffaa 	b	80000cc0 <__exception_handle+0xa4>
80000e18:	2406001b 	li	a2,27
80000e1c:	3c058000 	lui	a1,0x8000
80000e20:	24040001 	li	a0,1
80000e24:	24a51930 	addiu	a1,a1,6448
80000e28:	1000ffa5 	b	80000cc0 <__exception_handle+0xa4>
80000e2c:	2406001e 	li	a2,30
80000e30:	3c048000 	lui	a0,0x8000
80000e34:	10000006 	b	80000e50 <__exception_handle+0x234>
80000e38:	24841950 	addiu	a0,a0,6480
80000e3c:	3c048000 	lui	a0,0x8000
80000e40:	10000003 	b	80000e50 <__exception_handle+0x234>
80000e44:	24841964 	addiu	a0,a0,6500
80000e48:	3c048000 	lui	a0,0x8000
80000e4c:	24841978 	addiu	a0,a0,6520
80000e50:	10000017 	b	80000eb0 <__exception_handle+0x294>
80000e54:	8e05007c 	lw	a1,124(s0)
80000e58:	3c058000 	lui	a1,0x8000
80000e5c:	24040001 	li	a0,1
80000e60:	24a51988 	addiu	a1,a1,6536
80000e64:	1000ff96 	b	80000cc0 <__exception_handle+0xa4>
80000e68:	24060014 	li	a2,20
80000e6c:	3c058000 	lui	a1,0x8000
80000e70:	24040001 	li	a0,1
80000e74:	24a519a0 	addiu	a1,a1,6560
80000e78:	1000ff91 	b	80000cc0 <__exception_handle+0xa4>
80000e7c:	24060011 	li	a2,17
80000e80:	3c058000 	lui	a1,0x8000
80000e84:	24040001 	li	a0,1
80000e88:	24a519b4 	addiu	a1,a1,6580
80000e8c:	1000ff8c 	b	80000cc0 <__exception_handle+0xa4>
80000e90:	2406000d 	li	a2,13
80000e94:	3c058000 	lui	a1,0x8000
80000e98:	24040001 	li	a0,1
80000e9c:	24a519c4 	addiu	a1,a1,6596
80000ea0:	1000ff87 	b	80000cc0 <__exception_handle+0xa4>
80000ea4:	2406000c 	li	a2,12
80000ea8:	3c048000 	lui	a0,0x8000
80000eac:	248419d4 	addiu	a0,a0,6612
80000eb0:	3c068000 	lui	a2,0x8000
80000eb4:	0c000305 	jal	80000c14 <putsns>
80000eb8:	24c619c0 	addiu	a2,a2,6592
80000ebc:	3c118000 	lui	s1,0x8000
80000ec0:	3c048000 	lui	a0,0x8000
80000ec4:	00002821 	move	a1,zero
80000ec8:	248419ec 	addiu	a0,a0,6636
80000ecc:	262619f4 	addiu	a2,s1,6644
80000ed0:	0c000305 	jal	80000c14 <putsns>
80000ed4:	3c128000 	lui	s2,0x8000
80000ed8:	3c048000 	lui	a0,0x8000
80000edc:	8e050000 	lw	a1,0(s0)
80000ee0:	262619f4 	addiu	a2,s1,6644
80000ee4:	0c000305 	jal	80000c14 <putsns>
80000ee8:	248419f8 	addiu	a0,a0,6648
80000eec:	3c048000 	lui	a0,0x8000
80000ef0:	8e050004 	lw	a1,4(s0)
80000ef4:	262619f4 	addiu	a2,s1,6644
80000ef8:	0c000305 	jal	80000c14 <putsns>
80000efc:	24841a00 	addiu	a0,a0,6656
80000f00:	3c048000 	lui	a0,0x8000
80000f04:	8e050008 	lw	a1,8(s0)
80000f08:	264619c0 	addiu	a2,s2,6592
80000f0c:	0c000305 	jal	80000c14 <putsns>
80000f10:	24841a08 	addiu	a0,a0,6664
80000f14:	3c048000 	lui	a0,0x8000
80000f18:	8e05000c 	lw	a1,12(s0)
80000f1c:	262619f4 	addiu	a2,s1,6644
80000f20:	0c000305 	jal	80000c14 <putsns>
80000f24:	24841a10 	addiu	a0,a0,6672
80000f28:	3c048000 	lui	a0,0x8000
80000f2c:	8e050010 	lw	a1,16(s0)
80000f30:	262619f4 	addiu	a2,s1,6644
80000f34:	0c000305 	jal	80000c14 <putsns>
80000f38:	24841a18 	addiu	a0,a0,6680
80000f3c:	3c048000 	lui	a0,0x8000
80000f40:	8e050014 	lw	a1,20(s0)
80000f44:	262619f4 	addiu	a2,s1,6644
80000f48:	0c000305 	jal	80000c14 <putsns>
80000f4c:	24841a20 	addiu	a0,a0,6688
80000f50:	3c048000 	lui	a0,0x8000
80000f54:	8e050018 	lw	a1,24(s0)
80000f58:	264619c0 	addiu	a2,s2,6592
80000f5c:	0c000305 	jal	80000c14 <putsns>
80000f60:	24841a28 	addiu	a0,a0,6696
80000f64:	3c048000 	lui	a0,0x8000
80000f68:	8e05001c 	lw	a1,28(s0)
80000f6c:	262619f4 	addiu	a2,s1,6644
80000f70:	0c000305 	jal	80000c14 <putsns>
80000f74:	24841a30 	addiu	a0,a0,6704
80000f78:	3c048000 	lui	a0,0x8000
80000f7c:	8e050020 	lw	a1,32(s0)
80000f80:	262619f4 	addiu	a2,s1,6644
80000f84:	0c000305 	jal	80000c14 <putsns>
80000f88:	24841a38 	addiu	a0,a0,6712
80000f8c:	3c048000 	lui	a0,0x8000
80000f90:	8e050024 	lw	a1,36(s0)
80000f94:	262619f4 	addiu	a2,s1,6644
80000f98:	0c000305 	jal	80000c14 <putsns>
80000f9c:	24841a40 	addiu	a0,a0,6720
80000fa0:	3c048000 	lui	a0,0x8000
80000fa4:	8e050028 	lw	a1,40(s0)
80000fa8:	264619c0 	addiu	a2,s2,6592
80000fac:	0c000305 	jal	80000c14 <putsns>
80000fb0:	24841a48 	addiu	a0,a0,6728
80000fb4:	3c048000 	lui	a0,0x8000
80000fb8:	8e05002c 	lw	a1,44(s0)
80000fbc:	262619f4 	addiu	a2,s1,6644
80000fc0:	0c000305 	jal	80000c14 <putsns>
80000fc4:	24841a50 	addiu	a0,a0,6736
80000fc8:	3c048000 	lui	a0,0x8000
80000fcc:	8e050030 	lw	a1,48(s0)
80000fd0:	262619f4 	addiu	a2,s1,6644
80000fd4:	0c000305 	jal	80000c14 <putsns>
80000fd8:	24841a58 	addiu	a0,a0,6744
80000fdc:	3c048000 	lui	a0,0x8000
80000fe0:	8e050034 	lw	a1,52(s0)
80000fe4:	262619f4 	addiu	a2,s1,6644
80000fe8:	0c000305 	jal	80000c14 <putsns>
80000fec:	24841a60 	addiu	a0,a0,6752
80000ff0:	3c048000 	lui	a0,0x8000
80000ff4:	8e050038 	lw	a1,56(s0)
80000ff8:	264619c0 	addiu	a2,s2,6592
80000ffc:	0c000305 	jal	80000c14 <putsns>
80001000:	24841a68 	addiu	a0,a0,6760
80001004:	3c048000 	lui	a0,0x8000
80001008:	8e05003c 	lw	a1,60(s0)
8000100c:	262619f4 	addiu	a2,s1,6644
80001010:	0c000305 	jal	80000c14 <putsns>
80001014:	24841a70 	addiu	a0,a0,6768
80001018:	3c048000 	lui	a0,0x8000
8000101c:	8e050040 	lw	a1,64(s0)
80001020:	262619f4 	addiu	a2,s1,6644
80001024:	0c000305 	jal	80000c14 <putsns>
80001028:	24841a78 	addiu	a0,a0,6776
8000102c:	3c048000 	lui	a0,0x8000
80001030:	8e050044 	lw	a1,68(s0)
80001034:	262619f4 	addiu	a2,s1,6644
80001038:	0c000305 	jal	80000c14 <putsns>
8000103c:	24841a80 	addiu	a0,a0,6784
80001040:	3c048000 	lui	a0,0x8000
80001044:	8e050048 	lw	a1,72(s0)
80001048:	264619c0 	addiu	a2,s2,6592
8000104c:	0c000305 	jal	80000c14 <putsns>
80001050:	24841a88 	addiu	a0,a0,6792
80001054:	3c048000 	lui	a0,0x8000
80001058:	8e05004c 	lw	a1,76(s0)
8000105c:	262619f4 	addiu	a2,s1,6644
80001060:	0c000305 	jal	80000c14 <putsns>
80001064:	24841a90 	addiu	a0,a0,6800
80001068:	3c048000 	lui	a0,0x8000
8000106c:	8e050050 	lw	a1,80(s0)
80001070:	262619f4 	addiu	a2,s1,6644
80001074:	0c000305 	jal	80000c14 <putsns>
80001078:	24841a98 	addiu	a0,a0,6808
8000107c:	3c048000 	lui	a0,0x8000
80001080:	8e050054 	lw	a1,84(s0)
80001084:	262619f4 	addiu	a2,s1,6644
80001088:	0c000305 	jal	80000c14 <putsns>
8000108c:	24841aa0 	addiu	a0,a0,6816
80001090:	3c048000 	lui	a0,0x8000
80001094:	8e050058 	lw	a1,88(s0)
80001098:	264619c0 	addiu	a2,s2,6592
8000109c:	0c000305 	jal	80000c14 <putsns>
800010a0:	24841aa8 	addiu	a0,a0,6824
800010a4:	3c048000 	lui	a0,0x8000
800010a8:	8e05005c 	lw	a1,92(s0)
800010ac:	262619f4 	addiu	a2,s1,6644
800010b0:	0c000305 	jal	80000c14 <putsns>
800010b4:	24841ab0 	addiu	a0,a0,6832
800010b8:	3c048000 	lui	a0,0x8000
800010bc:	8e050060 	lw	a1,96(s0)
800010c0:	262619f4 	addiu	a2,s1,6644
800010c4:	0c000305 	jal	80000c14 <putsns>
800010c8:	24841ab8 	addiu	a0,a0,6840
800010cc:	3c048000 	lui	a0,0x8000
800010d0:	8e050064 	lw	a1,100(s0)
800010d4:	262619f4 	addiu	a2,s1,6644
800010d8:	0c000305 	jal	80000c14 <putsns>
800010dc:	24841ac0 	addiu	a0,a0,6848
800010e0:	3c048000 	lui	a0,0x8000
800010e4:	8e050068 	lw	a1,104(s0)
800010e8:	264619c0 	addiu	a2,s2,6592
800010ec:	0c000305 	jal	80000c14 <putsns>
800010f0:	24841ac8 	addiu	a0,a0,6856
800010f4:	3c048000 	lui	a0,0x8000
800010f8:	8e05006c 	lw	a1,108(s0)
800010fc:	262619f4 	addiu	a2,s1,6644
80001100:	0c000305 	jal	80000c14 <putsns>
80001104:	24841ad0 	addiu	a0,a0,6864
80001108:	3c048000 	lui	a0,0x8000
8000110c:	8e050070 	lw	a1,112(s0)
80001110:	262619f4 	addiu	a2,s1,6644
80001114:	0c000305 	jal	80000c14 <putsns>
80001118:	24841ad8 	addiu	a0,a0,6872
8000111c:	3c048000 	lui	a0,0x8000
80001120:	8e050074 	lw	a1,116(s0)
80001124:	262619f4 	addiu	a2,s1,6644
80001128:	0c000305 	jal	80000c14 <putsns>
8000112c:	24841ae0 	addiu	a0,a0,6880
80001130:	3c048000 	lui	a0,0x8000
80001134:	8e050078 	lw	a1,120(s0)
80001138:	264619c0 	addiu	a2,s2,6592
8000113c:	0c000305 	jal	80000c14 <putsns>
80001140:	24841ae8 	addiu	a0,a0,6888
80001144:	3c048000 	lui	a0,0x8000
80001148:	8e050084 	lw	a1,132(s0)
8000114c:	262619f4 	addiu	a2,s1,6644
80001150:	0c000305 	jal	80000c14 <putsns>
80001154:	24841af0 	addiu	a0,a0,6896
80001158:	3c048000 	lui	a0,0x8000
8000115c:	8e050088 	lw	a1,136(s0)
80001160:	264619c0 	addiu	a2,s2,6592
80001164:	0c000305 	jal	80000c14 <putsns>
80001168:	24841af8 	addiu	a0,a0,6904
8000116c:	3c048000 	lui	a0,0x8000
80001170:	8e05007c 	lw	a1,124(s0)
80001174:	264619c0 	addiu	a2,s2,6592
80001178:	0c000305 	jal	80000c14 <putsns>
8000117c:	24841b00 	addiu	a0,a0,6912
80001180:	3c048000 	lui	a0,0x8000
80001184:	8e050080 	lw	a1,128(s0)
80001188:	264619c0 	addiu	a2,s2,6592
8000118c:	0c000305 	jal	80000c14 <putsns>
80001190:	24841b0c 	addiu	a0,a0,6924
80001194:	3c048000 	lui	a0,0x8000
80001198:	8e050090 	lw	a1,144(s0)
8000119c:	264619c0 	addiu	a2,s2,6592
800011a0:	0c0002d5 	jal	80000b54 <putsnds.constprop.0>
800011a4:	24841b18 	addiu	a0,a0,6936
800011a8:	3c048000 	lui	a0,0x8000
800011ac:	8e050094 	lw	a1,148(s0)
800011b0:	264619c0 	addiu	a2,s2,6592
800011b4:	0c0002d5 	jal	80000b54 <putsnds.constprop.0>
800011b8:	24841b24 	addiu	a0,a0,6948
800011bc:	3c048000 	lui	a0,0x8000
800011c0:	8e050098 	lw	a1,152(s0)
800011c4:	264619c0 	addiu	a2,s2,6592
800011c8:	0c0002d5 	jal	80000b54 <putsnds.constprop.0>
800011cc:	24841b30 	addiu	a0,a0,6960
800011d0:	3c048000 	lui	a0,0x8000
800011d4:	8e05009c 	lw	a1,156(s0)
800011d8:	264619c0 	addiu	a2,s2,6592
800011dc:	0c0002d5 	jal	80000b54 <putsnds.constprop.0>
800011e0:	24841b3c 	addiu	a0,a0,6972
800011e4:	0c000526 	jal	80001498 <__uhi_exception>
800011e8:	02002021 	move	a0,s0
800011ec:	0c000118 	jal	80000460 <_exit>
800011f0:	24040002 	li	a0,2
800011f4:	8fbf001c 	lw	ra,28(sp)
800011f8:	8fb20018 	lw	s2,24(sp)
800011fc:	8fb10014 	lw	s1,20(sp)
80001200:	8fb00010 	lw	s0,16(sp)
80001204:	03e00008 	jr	ra
80001208:	27bd0020 	addiu	sp,sp,32

8000120c <__register_excpt_handler>:
8000120c:	40086000 	mfc0	t0,c0_status
80001210:	3c0a0040 	lui	t2,0x40
80001214:	408a6000 	mtc0	t2,c0_status
80001218:	000000c0 	ehb
8000121c:	3c098000 	lui	t1,0x8000
80001220:	25291fc4 	addiu	t1,t1,8132
80001224:	ad200000 	sw	zero,0(t1)
80001228:	3c098000 	lui	t1,0x8000
8000122c:	25291f80 	addiu	t1,t1,8064
80001230:	ad280000 	sw	t0,0(t1)
80001234:	ad300004 	sw	s0,4(t1)
80001238:	ad310008 	sw	s1,8(t1)
8000123c:	ad32000c 	sw	s2,12(t1)
80001240:	ad330010 	sw	s3,16(t1)
80001244:	ad340014 	sw	s4,20(t1)
80001248:	ad350018 	sw	s5,24(t1)
8000124c:	ad36001c 	sw	s6,28(t1)
80001250:	ad370020 	sw	s7,32(t1)
80001254:	ad3a0024 	sw	k0,36(t1)
80001258:	ad3b0028 	sw	k1,40(t1)
8000125c:	ad3c002c 	sw	gp,44(t1)
80001260:	ad3d0030 	sw	sp,48(t1)
80001264:	ad3e0034 	sw	s8,52(t1)
80001268:	ad240038 	sw	a0,56(t1)
8000126c:	400a7801 	mfc0	t2,c0_ebase
80001270:	ad2a003c 	sw	t2,60(t1)
80001274:	3c0b0040 	lui	t3,0x40
80001278:	010b5824 	and	t3,t0,t3
8000127c:	11600003 	beqz	t3,8000128c <__register_excpt_handler+0x80>
80001280:	00000000 	nop
80001284:	3c0abfc0 	lui	t2,0xbfc0
80001288:	354a0200 	ori	t2,t2,0x200
8000128c:	ad2a0040 	sw	t2,64(t1)
80001290:	3c0a8000 	lui	t2,0x8000
80001294:	254a0000 	addiu	t2,t2,0
80001298:	354a0800 	ori	t2,t2,0x800
8000129c:	408a7801 	mtc0	t2,c0_ebase
800012a0:	000000c0 	ehb
800012a4:	40806000 	mtc0	zero,c0_status
800012a8:	000000c0 	ehb
800012ac:	3c090080 	lui	t1,0x80
800012b0:	40896800 	mtc0	t1,c0_cause
800012b4:	000000c0 	ehb
800012b8:	24020001 	li	v0,1
800012bc:	03e00008 	jr	ra
800012c0:	00000000 	nop

800012c4 <__return_to_boot>:
800012c4:	40096000 	mfc0	t1,c0_status
800012c8:	3c0a0040 	lui	t2,0x40
800012cc:	012a4825 	or	t1,t1,t2
800012d0:	40896000 	mtc0	t1,c0_status
800012d4:	000000c0 	ehb
800012d8:	3c098000 	lui	t1,0x8000
800012dc:	25291f80 	addiu	t1,t1,8064
800012e0:	8d29003c 	lw	t1,60(t1)
800012e4:	352a0800 	ori	t2,t1,0x800
800012e8:	408a7801 	mtc0	t2,c0_ebase
800012ec:	312b0800 	andi	t3,t1,0x800
800012f0:	15600002 	bnez	t3,800012fc <__return_to_boot+0x38>
800012f4:	00000000 	nop
800012f8:	40897801 	mtc0	t1,c0_ebase
800012fc:	000000c0 	ehb
80001300:	3c098000 	lui	t1,0x8000
80001304:	25291f80 	addiu	t1,t1,8064
80001308:	8d300004 	lw	s0,4(t1)
8000130c:	8d310008 	lw	s1,8(t1)
80001310:	8d32000c 	lw	s2,12(t1)
80001314:	8d330010 	lw	s3,16(t1)
80001318:	8d340014 	lw	s4,20(t1)
8000131c:	8d350018 	lw	s5,24(t1)
80001320:	8d36001c 	lw	s6,28(t1)
80001324:	8d370020 	lw	s7,32(t1)
80001328:	8d3a0024 	lw	k0,36(t1)
8000132c:	8d3b0028 	lw	k1,40(t1)
80001330:	8d3c002c 	lw	gp,44(t1)
80001334:	8d3d0030 	lw	sp,48(t1)
80001338:	8d3e0034 	lw	s8,52(t1)
8000133c:	8d3f0038 	lw	ra,56(t1)
80001340:	8d290000 	lw	t1,0(t1)
80001344:	40896000 	mtc0	t1,c0_status
80001348:	40806800 	mtc0	zero,c0_cause
8000134c:	00801021 	move	v0,a0
80001350:	03e00408 	jr.hb	ra
80001354:	00000000 	nop

80001358 <__chain_uhi_excpt>:
80001358:	00801821 	move	v1,a0
8000135c:	8c690084 	lw	t1,132(v1)
80001360:	8c6a0088 	lw	t2,136(v1)
80001364:	01200011 	mthi	t1
80001368:	01400013 	mtlo	t2
8000136c:	8c690090 	lw	t1,144(v1)
80001370:	40896000 	mtc0	t1,c0_status
80001374:	8c69007c 	lw	t1,124(v1)
80001378:	40897000 	mtc0	t1,c0_epc
8000137c:	000000c0 	ehb
80001380:	8c610000 	lw	at,0(v1)
80001384:	8c620004 	lw	v0,4(v1)
80001388:	8c64000c 	lw	a0,12(v1)
8000138c:	8c650010 	lw	a1,16(v1)
80001390:	8c660014 	lw	a2,20(v1)
80001394:	8c670018 	lw	a3,24(v1)
80001398:	8c68001c 	lw	t0,28(v1)
8000139c:	8c690020 	lw	t1,32(v1)
800013a0:	8c6a0024 	lw	t2,36(v1)
800013a4:	8c6b0028 	lw	t3,40(v1)
800013a8:	8c6c002c 	lw	t4,44(v1)
800013ac:	8c6d0030 	lw	t5,48(v1)
800013b0:	8c6e0034 	lw	t6,52(v1)
800013b4:	8c6f0038 	lw	t7,56(v1)
800013b8:	8c70003c 	lw	s0,60(v1)
800013bc:	8c710040 	lw	s1,64(v1)
800013c0:	8c720044 	lw	s2,68(v1)
800013c4:	8c730048 	lw	s3,72(v1)
800013c8:	8c74004c 	lw	s4,76(v1)
800013cc:	8c750050 	lw	s5,80(v1)
800013d0:	8c760054 	lw	s6,84(v1)
800013d4:	8c770058 	lw	s7,88(v1)
800013d8:	8c78005c 	lw	t8,92(v1)
800013dc:	8c790060 	lw	t9,96(v1)
800013e0:	8c7c006c 	lw	gp,108(v1)
800013e4:	8c7d0070 	lw	sp,112(v1)
800013e8:	8c7e0074 	lw	s8,116(v1)
800013ec:	8c7f0078 	lw	ra,120(v1)
800013f0:	3c038000 	lui	v1,0x8000
800013f4:	24631f80 	addiu	v1,v1,8064
800013f8:	8c7a0024 	lw	k0,36(v1)
800013fc:	8c7b0028 	lw	k1,40(v1)
80001400:	8c630040 	lw	v1,64(v1)
80001404:	24630180 	addiu	v1,v1,384
80001408:	00600008 	jr	v1
8000140c:	00000000 	nop

80001410 <__get_startup_BEV>:
80001410:	3c028000 	lui	v0,0x8000
80001414:	24421f80 	addiu	v0,v0,8064
80001418:	8c420000 	lw	v0,0(v0)
8000141c:	3c030040 	lui	v1,0x40
80001420:	00431024 	and	v0,v0,v1
80001424:	03e00008 	jr	ra
80001428:	00000000 	nop

8000142c <strlen>:
8000142c:	24820001 	addiu	v0,a0,1
80001430:	90830000 	lbu	v1,0(a0)
80001434:	00000000 	nop
80001438:	1460fffd 	bnez	v1,80001430 <strlen+0x4>
8000143c:	24840001 	addiu	a0,a0,1
80001440:	03e00008 	jr	ra
80001444:	00821023 	subu	v0,a0,v0

80001448 <write>:
80001448:	27bdffe0 	addiu	sp,sp,-32
8000144c:	24190005 	li	t9,5
80001450:	afbf001c 	sw	ra,28(sp)
80001454:	24020001 	li	v0,1
80001458:	afb00018 	sw	s0,24(sp)
8000145c:	0000004c 	syscall	0x1
80001460:	00408021 	move	s0,v0
80001464:	2402ffff 	li	v0,-1
80001468:	16020007 	bne	s0,v0,80001488 <write+0x40>
8000146c:	8fbf001c 	lw	ra,28(sp)
80001470:	afa30010 	sw	v1,16(sp)
80001474:	0c00052b 	jal	800014ac <__errno>
80001478:	00000000 	nop
8000147c:	8fa30010 	lw	v1,16(sp)
80001480:	ac430000 	sw	v1,0(v0)
80001484:	8fbf001c 	lw	ra,28(sp)
80001488:	02001021 	move	v0,s0
8000148c:	8fb00018 	lw	s0,24(sp)
80001490:	03e00008 	jr	ra
80001494:	27bd0020 	addiu	sp,sp,32

80001498 <__uhi_exception>:
80001498:	2419000f 	li	t9,15
8000149c:	24020001 	li	v0,1
800014a0:	0000004c 	syscall	0x1
800014a4:	03e00008 	jr	ra
800014a8:	00000000 	nop

800014ac <__errno>:
800014ac:	3c028000 	lui	v0,0x8000
800014b0:	03e00008 	jr	ra
800014b4:	8c421fd0 	lw	v0,8144(v0)

800014b8 <__exception_save>:
800014b8:	03a0d821 	move	k1,sp
800014bc:	27bdff50 	addiu	sp,sp,-176
800014c0:	afa10010 	sw	at,16(sp)
800014c4:	afa20014 	sw	v0,20(sp)
800014c8:	afa30018 	sw	v1,24(sp)
800014cc:	afa4001c 	sw	a0,28(sp)
800014d0:	afa50020 	sw	a1,32(sp)
800014d4:	afa60024 	sw	a2,36(sp)
800014d8:	afa70028 	sw	a3,40(sp)
800014dc:	afa8002c 	sw	t0,44(sp)
800014e0:	afa90030 	sw	t1,48(sp)
800014e4:	afaa0034 	sw	t2,52(sp)
800014e8:	afab0038 	sw	t3,56(sp)
800014ec:	afac003c 	sw	t4,60(sp)
800014f0:	afad0040 	sw	t5,64(sp)
800014f4:	afae0044 	sw	t6,68(sp)
800014f8:	afaf0048 	sw	t7,72(sp)
800014fc:	afb0004c 	sw	s0,76(sp)
80001500:	afb10050 	sw	s1,80(sp)
80001504:	afb20054 	sw	s2,84(sp)
80001508:	afb30058 	sw	s3,88(sp)
8000150c:	afb4005c 	sw	s4,92(sp)
80001510:	afb50060 	sw	s5,96(sp)
80001514:	afb60064 	sw	s6,100(sp)
80001518:	afb70068 	sw	s7,104(sp)
8000151c:	afb8006c 	sw	t8,108(sp)
80001520:	afb90070 	sw	t9,112(sp)
80001524:	afba0074 	sw	k0,116(sp)
80001528:	afbc007c 	sw	gp,124(sp)
8000152c:	afbb0080 	sw	k1,128(sp)
80001530:	afbe0084 	sw	s8,132(sp)
80001534:	afbf0088 	sw	ra,136(sp)
80001538:	afa0009c 	sw	zero,156(sp)
8000153c:	00004810 	mfhi	t1
80001540:	00005012 	mflo	t2
80001544:	afa90094 	sw	t1,148(sp)
80001548:	afaa0098 	sw	t2,152(sp)
8000154c:	401f7000 	mfc0	ra,c0_epc
80001550:	40136800 	mfc0	s3,c0_cause
80001554:	afbf008c 	sw	ra,140(sp)
80001558:	40094000 	mfc0	t1,c0_badvaddr
8000155c:	afa90090 	sw	t1,144(sp)
80001560:	afb300a4 	sw	s3,164(sp)
80001564:	00005821 	move	t3,zero
80001568:	00006021 	move	t4,zero
8000156c:	40098003 	mfc0	t1,c0_config3
80001570:	7d2a06c0 	ext	t2,t1,0x1b,0x1
80001574:	11400001 	beqz	t2,8000157c <__exception_save+0xc4>
80001578:	400b4002 	mfc0	t3,$8,2
8000157c:	7d290680 	ext	t1,t1,0x1a,0x1
80001580:	11200001 	beqz	t1,80001588 <__exception_save+0xd0>
80001584:	400c4001 	mfc0	t4,$8,1
80001588:	afab00ac 	sw	t3,172(sp)
8000158c:	afac00a8 	sw	t4,168(sp)
80001590:	03a02021 	move	a0,sp
80001594:	40156000 	mfc0	s5,c0_status
80001598:	3c090000 	lui	t1,0x0
8000159c:	2529fffd 	addiu	t1,t1,-3
800015a0:	02a9a824 	and	s5,s5,t1
800015a4:	40956000 	mtc0	s5,c0_status
800015a8:	afb500a0 	sw	s5,160(sp)
800015ac:	3c1f8000 	lui	ra,0x8000
800015b0:	27ff15d0 	addiu	ra,ra,5584
800015b4:	3265007c 	andi	a1,s3,0x7c
800015b8:	24840010 	addiu	a0,a0,16
800015bc:	00052882 	srl	a1,a1,0x2
800015c0:	3c198000 	lui	t9,0x8000
800015c4:	27390c1c 	addiu	t9,t9,3100
800015c8:	03200008 	jr	t9
800015cc:	00000000 	nop
800015d0:	8fa90094 	lw	t1,148(sp)
800015d4:	8faa0098 	lw	t2,152(sp)
800015d8:	01200011 	mthi	t1
800015dc:	01400013 	mtlo	t2
800015e0:	8fb500a0 	lw	s5,160(sp)
800015e4:	40956000 	mtc0	s5,c0_status
800015e8:	8fb6008c 	lw	s6,140(sp)
800015ec:	40967000 	mtc0	s6,c0_epc
800015f0:	8fa10010 	lw	at,16(sp)
800015f4:	8fa20014 	lw	v0,20(sp)
800015f8:	8fa30018 	lw	v1,24(sp)
800015fc:	8fa4001c 	lw	a0,28(sp)
80001600:	8fa50020 	lw	a1,32(sp)
80001604:	8fa60024 	lw	a2,36(sp)
80001608:	8fa70028 	lw	a3,40(sp)
8000160c:	8fa8002c 	lw	t0,44(sp)
80001610:	8fa90030 	lw	t1,48(sp)
80001614:	8faa0034 	lw	t2,52(sp)
80001618:	8fab0038 	lw	t3,56(sp)
8000161c:	8fac003c 	lw	t4,60(sp)
80001620:	8fad0040 	lw	t5,64(sp)
80001624:	8fae0044 	lw	t6,68(sp)
80001628:	8faf0048 	lw	t7,72(sp)
8000162c:	8fb0004c 	lw	s0,76(sp)
80001630:	8fb10050 	lw	s1,80(sp)
80001634:	8fb20054 	lw	s2,84(sp)
80001638:	8fb30058 	lw	s3,88(sp)
8000163c:	8fb4005c 	lw	s4,92(sp)
80001640:	8fb50060 	lw	s5,96(sp)
80001644:	8fb60064 	lw	s6,100(sp)
80001648:	8fb70068 	lw	s7,104(sp)
8000164c:	8fb8006c 	lw	t8,108(sp)
80001650:	8fb90070 	lw	t9,112(sp)
80001654:	8fba0074 	lw	k0,116(sp)
80001658:	8fbb0078 	lw	k1,120(sp)
8000165c:	8fbc007c 	lw	gp,124(sp)
80001660:	8fbe0084 	lw	s8,132(sp)
80001664:	8fbf0088 	lw	ra,136(sp)
80001668:	8fbd0080 	lw	sp,128(sp)
8000166c:	42000018 	eret

Disassembly of section .init:

80001670 <_init>:
80001670:	27bdffe0 	addiu	sp,sp,-32
80001674:	afbf0014 	sw	ra,20(sp)
80001678:	0c000179 	jal	800005e4 <frame_dummy>
8000167c:	00000000 	nop
80001680:	0c0001bd 	jal	800006f4 <__do_global_ctors_aux>
80001684:	00000000 	nop

80001688 <init>:
80001688:	8fbf0014 	lw	ra,20(sp)
8000168c:	03e00008 	jr	ra
80001690:	27bd0020 	addiu	sp,sp,32

Disassembly of section .fini:

80001694 <_fini>:
80001694:	27bdffe0 	addiu	sp,sp,-32
80001698:	afbf0014 	sw	ra,20(sp)
8000169c:	0c000149 	jal	80000524 <__do_global_dtors_aux>
800016a0:	00000000 	nop

800016a4 <fini>:
800016a4:	8fbf0014 	lw	ra,20(sp)
800016a8:	03e00008 	jr	ra
800016ac:	27bd0020 	addiu	sp,sp,32

Disassembly of section .eh_frame:

800016b0 <__EH_FRAME_BEGIN__>:
800016b0:	00000000 	nop

Disassembly of section .jcr:

800016b4 <__JCR_END__>:
800016b4:	00000000 	nop

Disassembly of section .ctors:

800016b8 <__CTOR_LIST__>:
800016b8:	ffffffff 	sdc3	$31,-1(ra)

800016bc <__CTOR_END__>:
800016bc:	00000000 	nop

Disassembly of section .dtors:

800016c0 <__DTOR_LIST__>:
800016c0:	ffffffff 	sdc3	$31,-1(ra)

800016c4 <__DTOR_END__>:
800016c4:	00000000 	nop

Disassembly of section .MIPS.abiflags:

800016c8 <__MIPS_abiflags_start>:
800016c8:	02200000 	0x2200000
800016cc:	03000001 	movf	zero,t8,$fcc0
800016d0:	00000000 	nop
800016d4:	00000000 	nop
800016d8:	00000001 	movf	zerio,zero,$fcc0
800016dc:	00000000 	nop

Disassembly of section .rodata:

800016e0 <_fdata-0x470>:
800016e0:	80000c5c 	lb	zero,3164(zero)
800016e4:	80000c6c 	lb	zero,3180(zero)
800016e8:	80000c78 	lb	zero,3192(zero)
800016ec:	80000c84 	lb	zero,3204(zero)
800016f0:	80000ca4 	lb	zero,3236(zero)
800016f4:	80000cb0 	lb	zero,3248(zero)
800016f8:	80000cd0 	lb	zero,3280(zero)
800016fc:	80000ce4 	lb	zero,3300(zero)
80001700:	80000d5c 	lb	zero,3420(zero)
80001704:	80000d68 	lb	zero,3432(zero)
80001708:	80000d74 	lb	zero,3444(zero)
8000170c:	80000d80 	lb	zero,3456(zero)
80001710:	80000d94 	lb	zero,3476(zero)
80001714:	80000da8 	lb	zero,3496(zero)
80001718:	80000dbc 	lb	zero,3516(zero)
8000171c:	80000dd0 	lb	zero,3536(zero)
80001720:	80000de0 	lb	zero,3552(zero)
80001724:	80000df4 	lb	zero,3572(zero)
80001728:	80000e08 	lb	zero,3592(zero)
8000172c:	80000e1c 	lb	zero,3612(zero)
80001730:	80000e30 	lb	zero,3632(zero)
80001734:	80000e3c 	lb	zero,3644(zero)
80001738:	80000e48 	lb	zero,3656(zero)
8000173c:	80000e58 	lb	zero,3672(zero)
80001740:	80000e6c 	lb	zero,3692(zero)
80001744:	80000e80 	lb	zero,3712(zero)
80001748:	80000ea8 	lb	zero,3752(zero)
8000174c:	80000ea8 	lb	zero,3752(zero)
80001750:	80000ea8 	lb	zero,3752(zero)
80001754:	80000e94 	lb	zero,3732(zero)
80001758:	00000043 	sra	zero,zero,0x1
8000175c:	33323130 	andi	s2,t9,0x3130
80001760:	37363534 	ori	s6,t9,0x3534
80001764:	42413938 	c0	0x413938
80001768:	46454443 	c1	0x454443
8000176c:	00000000 	nop
80001770:	20424c54 	addi	v0,v0,19540
80001774:	69646f6d 	0x69646f6d
80001778:	61636966 	0x61636966
8000177c:	6e6f6974 	0x6e6f6974
80001780:	63786520 	0x63786520
80001784:	69747065 	0x69747065
80001788:	000a6e6f 	0xa6e6f
8000178c:	20424c54 	addi	v0,v0,19540
80001790:	6f727265 	0x6f727265
80001794:	6e6f2072 	0x6e6f2072
80001798:	616f6c20 	0x616f6c20
8000179c:	72662064 	s8ldi	xr1,s3,-120,ptn1
800017a0:	30206d6f 	andi	zero,at,0x6d6f
800017a4:	00000078 	0x78
800017a8:	20424c54 	addi	v0,v0,19540
800017ac:	6f727265 	0x6f727265
800017b0:	6e6f2072 	0x6e6f2072
800017b4:	6f747320 	0x6f747320
800017b8:	74206572 	jalx	808195c8 <__stack+0x7d95c8>
800017bc:	7830206f 	0x7830206f
800017c0:	00000000 	nop
800017c4:	72646441 	0x72646441
800017c8:	20737365 	addi	s3,v1,29541
800017cc:	6f727265 	0x6f727265
800017d0:	6e6f2072 	0x6e6f2072
800017d4:	616f6c20 	0x616f6c20
800017d8:	72662064 	s8ldi	xr1,s3,-120,ptn1
800017dc:	30206d6f 	andi	zero,at,0x6d6f
800017e0:	00000078 	0x78
800017e4:	72646441 	0x72646441
800017e8:	20737365 	addi	s3,v1,29541
800017ec:	6f727265 	0x6f727265
800017f0:	6e6f2072 	0x6e6f2072
800017f4:	6f747320 	0x6f747320
800017f8:	74206572 	jalx	808195c8 <__stack+0x7d95c8>
800017fc:	7830206f 	0x7830206f
80001800:	00000000 	nop
80001804:	74736e49 	jalx	81cdb924 <__stack+0x1c9b924>
80001808:	74637572 	jalx	818dd5c8 <__stack+0x189d5c8>
8000180c:	206e6f69 	addi	t6,v1,28521
80001810:	20737562 	addi	s3,v1,30050
80001814:	6f727265 	0x6f727265
80001818:	00000a72 	tlt	zero,zero,0x29
8000181c:	61746144 	0x61746144
80001820:	73756220 	0x73756220
80001824:	72726520 	0x72726520
80001828:	000a726f 	0xa726f
8000182c:	61657242 	0x61657242
80001830:	696f706b 	0x696f706b
80001834:	4020746e 	0x4020746e
80001838:	00007830 	tge	zero,zero,0x1e0
8000183c:	656c6c49 	0x656c6c49
80001840:	206c6167 	addi	t4,v1,24935
80001844:	74736e69 	jalx	81cdb9a4 <__stack+0x1c9b9a4>
80001848:	74637572 	jalx	818dd5c8 <__stack+0x189d5c8>
8000184c:	206e6f69 	addi	t6,v1,28521
80001850:	00783040 	0x783040
80001854:	72706f43 	0x72706f43
80001858:	7365636f 	0x7365636f
8000185c:	20726f73 	addi	s2,v1,28531
80001860:	73756e75 	q16slr	xr9,xr11,xr5,xr13,13
80001864:	656c6261 	0x656c6261
80001868:	78304020 	ld.b	$w0,48(t0)
8000186c:	00000000 	nop
80001870:	7265764f 	d16mace	xr9,xr13,xr5,xr9,SA,LW
80001874:	776f6c66 	jalx	8dbdb198 <__stack+0xdb9b198>
80001878:	0000000a 	movz	zero,zero,zero
8000187c:	70617254 	s32ldi	xr9,v1,368
80001880:	0000000a 	movz	zero,zero,zero
80001884:	2041534d 	addi	at,v0,21325
80001888:	616f6c46 	0x616f6c46
8000188c:	676e6974 	0x676e6974
80001890:	696f7020 	0x696f7020
80001894:	6520746e 	0x6520746e
80001898:	726f7272 	0x726f7272
8000189c:	0000000a 	movz	zero,zero,zero
800018a0:	6c706d49 	0x6c706d49
800018a4:	6e656d65 	0x6e656d65
800018a8:	69746174 	0x69746174
800018ac:	73206e6f 	0x73206e6f
800018b0:	69636570 	0x69636570
800018b4:	20636966 	addi	v1,v1,26982
800018b8:	65637865 	0x65637865
800018bc:	6f697470 	0x6f697470
800018c0:	3128206e 	andi	t0,t1,0x206e
800018c4:	000a2936 	tne	zero,t2,0xa4
800018c8:	6c706d49 	0x6c706d49
800018cc:	6e656d65 	0x6e656d65
800018d0:	69746174 	0x69746174
800018d4:	73206e6f 	0x73206e6f
800018d8:	69636570 	0x69636570
800018dc:	20636966 	addi	v1,v1,26982
800018e0:	65637865 	0x65637865
800018e4:	6f697470 	0x6f697470
800018e8:	3128206e 	andi	t0,t1,0x206e
800018ec:	000a2937 	0xa2937
800018f0:	63657250 	0x63657250
800018f4:	20657369 	addi	a1,v1,29545
800018f8:	72706f43 	0x72706f43
800018fc:	7365636f 	0x7365636f
80001900:	20726f73 	addi	s2,v1,28531
80001904:	78652032 	0x78652032
80001908:	74706563 	jalx	81c1958c <__stack+0x1bd958c>
8000190c:	0a6e6f69 	j	89b9bda4 <__stack+0x9b5bda4>
80001910:	00000000 	nop
80001914:	20424c54 	addi	v0,v0,19540
80001918:	64616572 	0x64616572
8000191c:	686e6920 	0x686e6920
80001920:	74696269 	jalx	81a589a4 <__stack+0x1a189a4>
80001924:	63786520 	0x63786520
80001928:	69747065 	0x69747065
8000192c:	000a6e6f 	0xa6e6f
80001930:	20424c54 	addi	v0,v0,19540
80001934:	63657865 	0x63657865
80001938:	20657475 	addi	a1,v1,29813
8000193c:	69686e69 	0x69686e69
80001940:	20746962 	addi	s4,v1,26978
80001944:	65637865 	0x65637865
80001948:	6f697470 	0x6f697470
8000194c:	00000a6e 	0xa6e
80001950:	2041534d 	addi	at,v0,21325
80001954:	73756e75 	q16slr	xr9,xr11,xr5,xr13,13
80001958:	656c6261 	0x656c6261
8000195c:	78304020 	ld.b	$w0,48(t0)
80001960:	00000000 	nop
80001964:	584d444d 	0x584d444d
80001968:	63786520 	0x63786520
8000196c:	69747065 	0x69747065
80001970:	40206e6f 	0x40206e6f
80001974:	00007830 	tge	zero,zero,0x1e0
80001978:	63746157 	0x63746157
8000197c:	696f7068 	0x696f7068
80001980:	4020746e 	0x4020746e
80001984:	00007830 	tge	zero,zero,0x1e0
80001988:	6863614d 	0x6863614d
8000198c:	20656e69 	addi	a1,v1,28265
80001990:	63656863 	0x63656863
80001994:	7265206b 	s16std	xr1,s3,-368,ptn0
80001998:	0a726f72 	j	89c9bdc8 <__stack+0x9c5bdc8>
8000199c:	00000000 	nop
800019a0:	65726854 	0x65726854
800019a4:	65206461 	0x65206461
800019a8:	70656378 	0x70656378
800019ac:	6e6f6974 	0x6e6f6974
800019b0:	0000000a 	movz	zero,zero,zero
800019b4:	20505344 	addi	s0,v0,21316
800019b8:	73756e75 	q16slr	xr9,xr11,xr5,xr13,13
800019bc:	656c6261 	0x656c6261
800019c0:	0000000a 	movz	zero,zero,zero
800019c4:	68636143 	0x68636143
800019c8:	72652065 	s8sdi	xr1,s3,72,ptn1
800019cc:	0a726f72 	j	89c9bdc8 <__stack+0x9c5bdc8>
800019d0:	00000000 	nop
800019d4:	61686e55 	0x61686e55
800019d8:	656c646e 	0x656c646e
800019dc:	78652064 	st.b	$w1,101(a0)
800019e0:	74706563 	jalx	81c1958c <__stack+0x1bd958c>
800019e4:	206e6f69 	addi	t6,v1,28521
800019e8:	00000000 	nop
800019ec:	093a3020 	j	84e8c080 <__stack+0x4e4c080>
800019f0:	00000000 	nop
800019f4:	00000009 	jalr	zero,zero
800019f8:	093a7461 	j	84e9d184 <__stack+0x4e5d184>
800019fc:	00000000 	nop
80001a00:	093a3076 	j	84e8c1d8 <__stack+0x4e4c1d8>
80001a04:	00000000 	nop
80001a08:	093a3176 	j	84e8c5d8 <__stack+0x4e4c5d8>
80001a0c:	00000000 	nop
80001a10:	093a3061 	j	84e8c184 <__stack+0x4e4c184>
80001a14:	00000000 	nop
80001a18:	093a3161 	j	84e8c584 <__stack+0x4e4c584>
80001a1c:	00000000 	nop
80001a20:	093a3261 	j	84e8c984 <__stack+0x4e4c984>
80001a24:	00000000 	nop
80001a28:	093a3361 	j	84e8cd84 <__stack+0x4e4cd84>
80001a2c:	00000000 	nop
80001a30:	093a3074 	j	84e8c1d0 <__stack+0x4e4c1d0>
80001a34:	00000000 	nop
80001a38:	093a3174 	j	84e8c5d0 <__stack+0x4e4c5d0>
80001a3c:	00000000 	nop
80001a40:	093a3274 	j	84e8c9d0 <__stack+0x4e4c9d0>
80001a44:	00000000 	nop
80001a48:	093a3374 	j	84e8cdd0 <__stack+0x4e4cdd0>
80001a4c:	00000000 	nop
80001a50:	093a3474 	j	84e8d1d0 <__stack+0x4e4d1d0>
80001a54:	00000000 	nop
80001a58:	093a3574 	j	84e8d5d0 <__stack+0x4e4d5d0>
80001a5c:	00000000 	nop
80001a60:	093a3674 	j	84e8d9d0 <__stack+0x4e4d9d0>
80001a64:	00000000 	nop
80001a68:	093a3774 	j	84e8ddd0 <__stack+0x4e4ddd0>
80001a6c:	00000000 	nop
80001a70:	093a3073 	j	84e8c1cc <__stack+0x4e4c1cc>
80001a74:	00000000 	nop
80001a78:	093a3173 	j	84e8c5cc <__stack+0x4e4c5cc>
80001a7c:	00000000 	nop
80001a80:	093a3273 	j	84e8c9cc <__stack+0x4e4c9cc>
80001a84:	00000000 	nop
80001a88:	093a3373 	j	84e8cdcc <__stack+0x4e4cdcc>
80001a8c:	00000000 	nop
80001a90:	093a3473 	j	84e8d1cc <__stack+0x4e4d1cc>
80001a94:	00000000 	nop
80001a98:	093a3573 	j	84e8d5cc <__stack+0x4e4d5cc>
80001a9c:	00000000 	nop
80001aa0:	093a3673 	j	84e8d9cc <__stack+0x4e4d9cc>
80001aa4:	00000000 	nop
80001aa8:	093a3773 	j	84e8ddcc <__stack+0x4e4ddcc>
80001aac:	00000000 	nop
80001ab0:	093a3874 	j	84e8e1d0 <__stack+0x4e4e1d0>
80001ab4:	00000000 	nop
80001ab8:	093a3974 	j	84e8e5d0 <__stack+0x4e4e5d0>
80001abc:	00000000 	nop
80001ac0:	093a306b 	j	84e8c1ac <__stack+0x4e4c1ac>
80001ac4:	00000000 	nop
80001ac8:	093a316b 	j	84e8c5ac <__stack+0x4e4c5ac>
80001acc:	00000000 	nop
80001ad0:	093a7067 	j	84e9c19c <__stack+0x4e5c19c>
80001ad4:	00000000 	nop
80001ad8:	093a7073 	j	84e9c1cc <__stack+0x4e5c1cc>
80001adc:	00000000 	nop
80001ae0:	093a7066 	j	84e9c198 <__stack+0x4e5c198>
80001ae4:	00000000 	nop
80001ae8:	093a6172 	j	84e985c8 <__stack+0x4e585c8>
80001aec:	00000000 	nop
80001af0:	093a6968 	j	84e9a5a0 <__stack+0x4e5a5a0>
80001af4:	00000000 	nop
80001af8:	093a6f6c 	j	84e9bdb0 <__stack+0x4e5bdb0>
80001afc:	00000000 	nop
80001b00:	3a637065 	xori	v1,s3,0x7065
80001b04:	20202020 	addi	zero,at,8224
80001b08:	00000920 	0x920
80001b0c:	56646142 	bnel	s3,a0,8001a018 <__global+0x10050>
80001b10:	72646441 	0x72646441
80001b14:	0000093a 	0x93a
80001b18:	74617453 	jalx	8185d14c <__stack+0x181d14c>
80001b1c:	203a7375 	addi	k0,at,29557
80001b20:	00092020 	add	a0,zero,t1
80001b24:	73756143 	0x73756143
80001b28:	20203a65 	addi	zero,at,14949
80001b2c:	00092020 	add	a0,zero,t1
80001b30:	49646142 	0x49646142
80001b34:	7274736e 	0x7274736e
80001b38:	0009203a 	0x9203a
80001b3c:	50646142 	beql	v1,a0,8001a048 <__global+0x10080>
80001b40:	74736e49 	jalx	81cdb924 <__stack+0x1c9b924>
80001b44:	00093a72 	tlt	zero,t1,0xe9

Disassembly of section .data:

80001b48 <__temp_space>:
80001b48:	00000000 	nop
80001b4c:	00000000 	nop
80001b50:	00000000 	nop
80001b54:	00000000 	nop

80001b58 <impure_data>:
80001b58:	00000000 	nop
80001b5c:	80001e44 	lb	zero,7748(zero)
80001b60:	80001eac 	lb	zero,7852(zero)
80001b64:	80001f14 	lb	zero,7956(zero)
80001b68:	00000000 	nop
80001b6c:	00000000 	nop
80001b70:	00000000 	nop
80001b74:	00000000 	nop
80001b78:	00000000 	nop
80001b7c:	00000000 	nop
80001b80:	00000000 	nop
80001b84:	00000000 	nop
80001b88:	00000000 	nop
80001b8c:	80001758 	lb	zero,5976(zero)
80001b90:	00000000 	nop
80001b94:	00000000 	nop
80001b98:	00000000 	nop
80001b9c:	00000000 	nop
80001ba0:	00000000 	nop
80001ba4:	00000000 	nop
80001ba8:	00000000 	nop
80001bac:	00000000 	nop
80001bb0:	00000000 	nop
80001bb4:	00000000 	nop
80001bb8:	00000000 	nop
80001bbc:	00000000 	nop
80001bc0:	00000000 	nop
80001bc4:	00000000 	nop
80001bc8:	00000000 	nop
80001bcc:	00000000 	nop
80001bd0:	00000000 	nop
80001bd4:	00000000 	nop
80001bd8:	00000000 	nop
80001bdc:	00000000 	nop
80001be0:	00000000 	nop
80001be4:	00000000 	nop
80001be8:	00000000 	nop
80001bec:	00000000 	nop
80001bf0:	00000000 	nop
80001bf4:	00000000 	nop
80001bf8:	00000000 	nop
80001bfc:	00000000 	nop
80001c00:	00000001 	movf	zero,zero,$fcc0
80001c04:	00000000 	nop
80001c08:	abcd330e 	swl	t5,13070(s8)
80001c0c:	e66d1234 	swc1	$f13,4660(s3)
80001c10:	0005deec 	0x5deec
80001c14:	0000000b 	movn	zero,zero,zero
80001c18:	00000000 	nop
80001c1c:	00000000 	nop
80001c20:	00000000 	nop
80001c24:	00000000 	nop
80001c28:	00000000 	nop
80001c2c:	00000000 	nop
80001c30:	00000000 	nop
80001c34:	00000000 	nop
80001c38:	00000000 	nop
80001c3c:	00000000 	nop
80001c40:	00000000 	nop
80001c44:	00000000 	nop
80001c48:	00000000 	nop
80001c4c:	00000000 	nop
80001c50:	00000000 	nop
80001c54:	00000000 	nop
80001c58:	00000000 	nop
80001c5c:	00000000 	nop
80001c60:	00000000 	nop
80001c64:	00000000 	nop
80001c68:	00000000 	nop
80001c6c:	00000000 	nop
80001c70:	00000000 	nop
80001c74:	00000000 	nop
80001c78:	00000000 	nop
80001c7c:	00000000 	nop
80001c80:	00000000 	nop
80001c84:	00000000 	nop
80001c88:	00000000 	nop
80001c8c:	00000000 	nop
80001c90:	00000000 	nop
80001c94:	00000000 	nop
80001c98:	00000000 	nop
80001c9c:	00000000 	nop
80001ca0:	00000000 	nop
80001ca4:	00000000 	nop
80001ca8:	00000000 	nop
80001cac:	00000000 	nop
80001cb0:	00000000 	nop
80001cb4:	00000000 	nop
80001cb8:	00000000 	nop
80001cbc:	00000000 	nop
80001cc0:	00000000 	nop
80001cc4:	00000000 	nop
80001cc8:	00000000 	nop
80001ccc:	00000000 	nop
80001cd0:	00000000 	nop
80001cd4:	00000000 	nop
80001cd8:	00000000 	nop
80001cdc:	00000000 	nop
80001ce0:	00000000 	nop
80001ce4:	00000000 	nop
80001ce8:	00000000 	nop
80001cec:	00000000 	nop
80001cf0:	00000000 	nop
80001cf4:	00000000 	nop
80001cf8:	00000000 	nop
80001cfc:	00000000 	nop
80001d00:	00000000 	nop
80001d04:	00000000 	nop
80001d08:	00000000 	nop
80001d0c:	00000000 	nop
80001d10:	00000000 	nop
80001d14:	00000000 	nop
80001d18:	00000000 	nop
80001d1c:	00000000 	nop
80001d20:	00000000 	nop
80001d24:	00000000 	nop
80001d28:	00000000 	nop
80001d2c:	00000000 	nop
80001d30:	00000000 	nop
80001d34:	00000000 	nop
80001d38:	00000000 	nop
80001d3c:	00000000 	nop
80001d40:	00000000 	nop
80001d44:	00000000 	nop
80001d48:	00000000 	nop
80001d4c:	00000000 	nop
80001d50:	00000000 	nop
80001d54:	00000000 	nop
80001d58:	00000000 	nop
80001d5c:	00000000 	nop
80001d60:	00000000 	nop
80001d64:	00000000 	nop
80001d68:	00000000 	nop
80001d6c:	00000000 	nop
80001d70:	00000000 	nop
80001d74:	00000000 	nop
80001d78:	00000000 	nop
80001d7c:	00000000 	nop
80001d80:	00000000 	nop
80001d84:	00000000 	nop
80001d88:	00000000 	nop
80001d8c:	00000000 	nop
80001d90:	00000000 	nop
80001d94:	00000000 	nop
80001d98:	00000000 	nop
80001d9c:	00000000 	nop
80001da0:	00000000 	nop
80001da4:	00000000 	nop
80001da8:	00000000 	nop
80001dac:	00000000 	nop
80001db0:	00000000 	nop
80001db4:	00000000 	nop
80001db8:	00000000 	nop
80001dbc:	00000000 	nop
80001dc0:	00000000 	nop
80001dc4:	00000000 	nop
80001dc8:	00000000 	nop
80001dcc:	00000000 	nop
80001dd0:	00000000 	nop
80001dd4:	00000000 	nop
80001dd8:	00000000 	nop
80001ddc:	00000000 	nop
80001de0:	00000000 	nop
80001de4:	00000000 	nop
80001de8:	00000000 	nop
80001dec:	00000000 	nop
80001df0:	00000000 	nop
80001df4:	00000000 	nop
80001df8:	00000000 	nop
80001dfc:	00000000 	nop
80001e00:	00000000 	nop
80001e04:	00000000 	nop
80001e08:	00000000 	nop
80001e0c:	00000000 	nop
80001e10:	00000000 	nop
80001e14:	00000000 	nop
80001e18:	00000000 	nop
80001e1c:	00000000 	nop
80001e20:	00000000 	nop
80001e24:	00000000 	nop
80001e28:	00000000 	nop
80001e2c:	00000000 	nop
80001e30:	00000000 	nop
80001e34:	00000000 	nop
80001e38:	00000000 	nop
80001e3c:	00000000 	nop
80001e40:	00000000 	nop
80001e44:	00000000 	nop
80001e48:	00000000 	nop
80001e4c:	00000000 	nop
80001e50:	00000000 	nop
80001e54:	00000000 	nop
80001e58:	00000000 	nop
80001e5c:	00000000 	nop
80001e60:	00000000 	nop
80001e64:	00000000 	nop
80001e68:	00000000 	nop
80001e6c:	00000000 	nop
80001e70:	00000000 	nop
80001e74:	00000000 	nop
80001e78:	00000000 	nop
80001e7c:	00000000 	nop
80001e80:	00000000 	nop
80001e84:	00000000 	nop
80001e88:	00000000 	nop
80001e8c:	00000000 	nop
80001e90:	00000000 	nop
80001e94:	00000000 	nop
80001e98:	00000000 	nop
80001e9c:	00000000 	nop
80001ea0:	00000000 	nop
80001ea4:	00000000 	nop
80001ea8:	00000000 	nop
80001eac:	00000000 	nop
80001eb0:	00000000 	nop
80001eb4:	00000000 	nop
80001eb8:	00000000 	nop
80001ebc:	00000000 	nop
80001ec0:	00000000 	nop
80001ec4:	00000000 	nop
80001ec8:	00000000 	nop
80001ecc:	00000000 	nop
80001ed0:	00000000 	nop
80001ed4:	00000000 	nop
80001ed8:	00000000 	nop
80001edc:	00000000 	nop
80001ee0:	00000000 	nop
80001ee4:	00000000 	nop
80001ee8:	00000000 	nop
80001eec:	00000000 	nop
80001ef0:	00000000 	nop
80001ef4:	00000000 	nop
80001ef8:	00000000 	nop
80001efc:	00000000 	nop
80001f00:	00000000 	nop
80001f04:	00000000 	nop
80001f08:	00000000 	nop
80001f0c:	00000000 	nop
80001f10:	00000000 	nop
80001f14:	00000000 	nop
80001f18:	00000000 	nop
80001f1c:	00000000 	nop
80001f20:	00000000 	nop
80001f24:	00000000 	nop
80001f28:	00000000 	nop
80001f2c:	00000000 	nop
80001f30:	00000000 	nop
80001f34:	00000000 	nop
80001f38:	00000000 	nop
80001f3c:	00000000 	nop
80001f40:	00000000 	nop
80001f44:	00000000 	nop
80001f48:	00000000 	nop
80001f4c:	00000000 	nop
80001f50:	00000000 	nop
80001f54:	00000000 	nop
80001f58:	00000000 	nop
80001f5c:	00000000 	nop
80001f60:	00000000 	nop
80001f64:	00000000 	nop
80001f68:	00000000 	nop
80001f6c:	00000000 	nop
80001f70:	00000000 	nop
80001f74:	00000000 	nop
80001f78:	00000000 	nop
80001f7c:	00000000 	nop

80001f80 <__start_ctx>:
80001f80:	00000000 	nop
80001f84:	00000000 	nop
80001f88:	00000000 	nop
80001f8c:	00000000 	nop
80001f90:	00000000 	nop
80001f94:	00000000 	nop
80001f98:	00000000 	nop
80001f9c:	00000000 	nop
80001fa0:	00000000 	nop
80001fa4:	00000000 	nop
80001fa8:	00000000 	nop
80001fac:	00000000 	nop
80001fb0:	00000000 	nop
80001fb4:	00000000 	nop
80001fb8:	00000000 	nop
80001fbc:	00000000 	nop
80001fc0:	00000000 	nop

80001fc4 <__first_boot>:
80001fc4:	00000001 	movf	zero,zero,$fcc0

Disassembly of section .sdata:

80001fc8 <__TMC_END__>:
80001fc8:	00000000 	nop

80001fcc <_global_impure_ptr>:
80001fcc:	80001b58 	lb	zero,7000(zero)

80001fd0 <_impure_ptr>:
80001fd0:	80001b58 	lb	zero,7000(zero)

Disassembly of section .bss:

80001fe0 <_bss_start>:
80001fe0:	00000000 	nop

80001fe4 <dtor_idx.3434>:
80001fe4:	00000000 	nop

80001fe8 <object.3444>:
80001fe8:	00000000 	nop
80001fec:	00000000 	nop
80001ff0:	00000000 	nop
80001ff4:	00000000 	nop
80001ff8:	00000000 	nop
80001ffc:	00000000 	nop

80002000 <__memsize>:
80002000:	00000000 	nop
80002004:	00000000 	nop
80002008:	00000000 	nop
8000200c:	00000000 	nop

80002010 <__lstack>:
80002010:	00000000 	nop
80002014:	00000000 	nop
80002018:	00000000 	nop
8000201c:	00000000 	nop
80002020:	00000000 	nop
80002024:	00000000 	nop
80002028:	00000000 	nop
8000202c:	00000000 	nop
80002030:	00000000 	nop
80002034:	00000000 	nop
80002038:	00000000 	nop
8000203c:	00000000 	nop
80002040:	00000000 	nop
80002044:	00000000 	nop
80002048:	00000000 	nop
8000204c:	00000000 	nop
80002050:	00000000 	nop
80002054:	00000000 	nop
80002058:	00000000 	nop
8000205c:	00000000 	nop
80002060:	00000000 	nop
80002064:	00000000 	nop
80002068:	00000000 	nop
8000206c:	00000000 	nop
80002070:	00000000 	nop
80002074:	00000000 	nop
80002078:	00000000 	nop
8000207c:	00000000 	nop
80002080:	00000000 	nop
80002084:	00000000 	nop
80002088:	00000000 	nop
8000208c:	00000000 	nop
80002090:	00000000 	nop
80002094:	00000000 	nop
80002098:	00000000 	nop
8000209c:	00000000 	nop
800020a0:	00000000 	nop
800020a4:	00000000 	nop
800020a8:	00000000 	nop
800020ac:	00000000 	nop
800020b0:	00000000 	nop
800020b4:	00000000 	nop
800020b8:	00000000 	nop
800020bc:	00000000 	nop
800020c0:	00000000 	nop
800020c4:	00000000 	nop
800020c8:	00000000 	nop
800020cc:	00000000 	nop
800020d0:	00000000 	nop
800020d4:	00000000 	nop
800020d8:	00000000 	nop
800020dc:	00000000 	nop
800020e0:	00000000 	nop
800020e4:	00000000 	nop
800020e8:	00000000 	nop
800020ec:	00000000 	nop
800020f0:	00000000 	nop
800020f4:	00000000 	nop
800020f8:	00000000 	nop
800020fc:	00000000 	nop
80002100:	00000000 	nop
80002104:	00000000 	nop
80002108:	00000000 	nop
8000210c:	00000000 	nop

Disassembly of section .debug_aranges:

00000000 <.debug_aranges>:
   0:	0000001c 	0x1c
   4:	00000002 	srl	zero,zero,0x0
   8:	00040000 	sll	zero,a0,0x0
   c:	00000000 	nop
  10:	80000218 	lb	zero,536(zero)
  14:	00000288 	0x288
  18:	00000000 	nop
  1c:	00000000 	nop
  20:	0000001c 	0x1c
  24:	00a50002 	0xa50002
  28:	00040000 	sll	zero,a0,0x0
  2c:	00000000 	nop
  30:	9fc00000 	0x9fc00000
  34:	0000049c 	0x49c
  38:	00000000 	nop
  3c:	00000000 	nop
  40:	0000001c 	0x1c
  44:	00f90002 	0xf90002
  48:	00040000 	sll	zero,a0,0x0
  4c:	00000000 	nop
  50:	80000644 	lb	zero,1604(zero)
  54:	000000b0 	tge	zero,zero,0x2
  58:	00000000 	nop
  5c:	00000000 	nop
  60:	0000001c 	0x1c
  64:	019f0002 	0x19f0002
  68:	00040000 	sll	zero,a0,0x0
  6c:	00000000 	nop
  70:	8000073c 	lb	zero,1852(zero)
  74:	00000028 	0x28
  78:	00000000 	nop
  7c:	00000000 	nop
  80:	0000001c 	0x1c
  84:	02a50002 	0x2a50002
  88:	00040000 	sll	zero,a0,0x0
  8c:	00000000 	nop
  90:	80000764 	lb	zero,1892(zero)
  94:	0000003c 	0x3c
  98:	00000000 	nop
  9c:	00000000 	nop
  a0:	00000014 	0x14
  a4:	0b850002 	j	e140008 <__memory_size+0xe120808>
  a8:	00040000 	sll	zero,a0,0x0
  ac:	00000000 	nop
  b0:	00000000 	nop
  b4:	00000000 	nop
  b8:	0000001c 	0x1c
  bc:	14150002 	bne	zero,s5,c8 <ABIFlags_flags2+0xb4>
  c0:	00040000 	sll	zero,a0,0x0
  c4:	00000000 	nop
  c8:	800007a0 	lb	zero,1952(zero)
  cc:	00000108 	0x108
  d0:	00000000 	nop
  d4:	00000000 	nop
  d8:	0000001c 	0x1c
  dc:	1d450002 	0x1d450002
  e0:	00040000 	sll	zero,a0,0x0
  e4:	00000000 	nop
  e8:	800008a8 	lb	zero,2216(zero)
  ec:	00000180 	sll	zero,zero,0x6
  f0:	00000000 	nop
  f4:	00000000 	nop
  f8:	0000001c 	0x1c
  fc:	269a0002 	addiu	k0,s4,2
 100:	00040000 	sll	zero,a0,0x0
 104:	00000000 	nop
 108:	80000a28 	lb	zero,2600(zero)
 10c:	00000064 	0x64
 110:	00000000 	nop
 114:	00000000 	nop
 118:	0000001c 	0x1c
 11c:	27c00002 	addiu	zero,s8,2
 120:	00040000 	sll	zero,a0,0x0
 124:	00000000 	nop
 128:	80000a8c 	lb	zero,2700(zero)
 12c:	00000010 	mfhi	zero
 130:	00000000 	nop
 134:	00000000 	nop
 138:	0000001c 	0x1c
 13c:	28600002 	slti	zero,v1,2
 140:	00040000 	sll	zero,a0,0x0
 144:	00000000 	nop
 148:	80000a9c 	lb	zero,2716(zero)
 14c:	000000b8 	0xb8
 150:	00000000 	nop
 154:	00000000 	nop
 158:	00000024 	and	zero,zero,zero
 15c:	290c0002 	slti	t4,t0,2
 160:	00040000 	sll	zero,a0,0x0
 164:	00000000 	nop
 168:	80000000 	lb	zero,0(zero)
 16c:	00000218 	0x218
 170:	800014b8 	lb	zero,5304(zero)
 174:	000001b8 	0x1b8
 178:	00000000 	nop
 17c:	00000000 	nop
 180:	0000001c 	0x1c
 184:	29b90002 	slti	t9,t5,2
 188:	00040000 	sll	zero,a0,0x0
 18c:	00000000 	nop
 190:	80000b54 	lb	zero,2900(zero)
 194:	000006b8 	0x6b8
 198:	00000000 	nop
 19c:	00000000 	nop
 1a0:	0000001c 	0x1c
 1a4:	34420002 	ori	v0,v0,0x2
 1a8:	00040000 	sll	zero,a0,0x0
 1ac:	00000000 	nop
 1b0:	8000120c 	lb	zero,4620(zero)
 1b4:	00000220 	0x220
 1b8:	00000000 	nop
 1bc:	00000000 	nop
 1c0:	00000014 	0x14
 1c4:	34f60002 	ori	s6,a3,0x2
 1c8:	00040000 	sll	zero,a0,0x0
 1cc:	00000000 	nop
 1d0:	00000000 	nop
 1d4:	00000000 	nop
 1d8:	0000001c 	0x1c
 1dc:	35640002 	ori	a0,t3,0x2
 1e0:	00040000 	sll	zero,a0,0x0
 1e4:	00000000 	nop
 1e8:	80001448 	lb	zero,5192(zero)
 1ec:	00000050 	0x50
 1f0:	00000000 	nop
 1f4:	00000000 	nop
 1f8:	0000001c 	0x1c
 1fc:	36d20002 	ori	s2,s6,0x2
 200:	00040000 	sll	zero,a0,0x0
 204:	00000000 	nop
 208:	80001498 	lb	zero,5272(zero)
 20c:	00000014 	0x14
 210:	00000000 	nop
 214:	00000000 	nop
 218:	0000001c 	0x1c
 21c:	38ea0002 	xori	t2,a3,0x2
 220:	00040000 	sll	zero,a0,0x0
 224:	00000000 	nop
 228:	800014ac 	lb	zero,5292(zero)
 22c:	0000000c 	syscall
 230:	00000000 	nop
 234:	00000000 	nop

Disassembly of section .debug_info:

00000000 <.debug_info>:
       0:	000000a1 	0xa1
       4:	00000002 	srl	zero,zero,0x0
       8:	01040000 	0x1040000
       c:	00000000 	nop
      10:	80000218 	lb	zero,536(zero)
      14:	800004a0 	lb	zero,1184(zero)
      18:	6573752f 	0x6573752f
      1c:	696d2f72 	0x696d2f72
      20:	77737370 	jalx	dcdcdc0 <__memory_size+0xdcbd5c0>
      24:	69672f74 	0x69672f74
      28:	656e2f74 	0x656e2f74
      2c:	62696c77 	0x62696c77
      30:	62696c2f 	0x62696c2f
      34:	736f6c67 	0x736f6c67
      38:	696d2f73 	0x696d2f73
      3c:	632f7370 	0x632f7370
      40:	2e307472 	sltiu	s0,s1,29810
      44:	752f0053 	jalx	4bc014c <__memory_size+0x4ba094c>
      48:	2f726573 	sltiu	s2,k1,25971
      4c:	7370696d 	s16sdi	xr5,k1,52,
      50:	2f747773 	sltiu	s4,k1,30579
      54:	2d6a626f 	sltiu	t2,t3,25199
      58:	736f7263 	s8std	xr9,k1,-36,ptn3
      5c:	696d2d73 	0x696d2d73
      60:	6d2d7370 	0x6d2d7370
      64:	652d6974 	0x652d6974
      68:	6e2f666c 	0x6e2f666c
      6c:	696c7765 	0x696c7765
      70:	696d2f62 	0x696d2f62
      74:	6d2d7370 	0x6d2d7370
      78:	652d6974 	0x652d6974
      7c:	652f666c 	0x652f666c
      80:	6f732f6c 	0x6f732f6c
      84:	696c2f66 	0x696c2f66
      88:	6f6c6762 	0x6f6c6762
      8c:	6d2f7373 	0x6d2f7373
      90:	00737069 	0x737069
      94:	20554e47 	addi	s5,v0,20039
      98:	32205341 	andi	zero,s1,0x5341
      9c:	2e34322e 	sltiu	s4,s1,12846
      a0:	01003039 	0x1003039
      a4:	00005080 	sll	t2,zero,0x2
      a8:	14000200 	bnez	zero,8ac <ABIFlags_flags2+0x898>
      ac:	04000000 	bltz	zero,b0 <ABIFlags_flags2+0x9c>
      b0:	0000de01 	0xde01
      b4:	c0000000 	ll	zero,0(zero)
      b8:	c0049c9f 	ll	a0,-25441(zero)
      bc:	6f6f629f 	0x6f6f629f
      c0:	00532e74 	teq	v0,s3,0xb9
      c4:	6d5c3a43 	0x6d5c3a43
      c8:	36737973 	ori	s3,s3,0x7973
      cc:	6f685c34 	0x6f685c34
      d0:	4c5c656d 	0x4c5c656d
      d4:	735c6565 	s8sdi	xr5,k0,25,
      d8:	525c6372 	beql	s2,gp,18ea4 <ABIFlags_flags2+0x18e90>
      dc:	53646165 	beql	k1,a0,18674 <ABIFlags_flags2+0x18660>
      e0:	63746977 	0x63746977
      e4:	00736568 	0x736568
      e8:	20554e47 	addi	s5,v0,20039
      ec:	32205341 	andi	zero,s1,0x5341
      f0:	2e34322e 	sltiu	s4,s1,12846
      f4:	01003039 	0x1003039
      f8:	0000a280 	sll	s4,zero,0xa
      fc:	28000400 	slti	zero,zero,1024
     100:	04000000 	bltz	zero,104 <ABIFlags_flags2+0xf0>
     104:	00000001 	movf	zero,zero,$fcc0
     108:	00890100 	0x890100
     10c:	005f0000 	0x5f0000
     110:	06440000 	0x6440000
     114:	00b08000 	0xb08000
     118:	02020000 	0x2020000
     11c:	98020000 	lwr	v0,0(zero)
     120:	01000000 	0x1000000
     124:	0000690e 	0x690e
     128:	00064400 	sll	t0,a2,0x10
     12c:	00006080 	sll	t4,zero,0x2
     130:	699c0100 	0x699c0100
     134:	03000000 	0x3000000
     138:	00000053 	mtlhx	zero
     13c:	00700f01 	0x700f01
     140:	91020000 	lbu	v0,0(t0)
     144:	00900368 	0x900368
     148:	10010000 	beq	zero,at,14c <ABIFlags_flags2+0x138>
     14c:	00000070 	tge	zero,zero,0x1
     150:	036c9102 	0x36c9102
     154:	0000009d 	0x9d
     158:	007b1101 	0x7b1101
     15c:	91020000 	lbu	v0,0(t0)
     160:	04040070 	0x4040070
     164:	746e6905 	jalx	1b9a414 <__memory_size+0x1b7ac14>
     168:	76040500 	jalx	8101400 <__memory_size+0x80e1c00>
     16c:	06000000 	bltz	s0,170 <ABIFlags_flags2+0x15c>
     170:	00000069 	0x69
     174:	00008006 	srlv	s0,zero,zero
     178:	07040700 	0x7040700
     17c:	00000115 	0x115
     180:	00008308 	0x8308
     184:	a41d0100 	sh	sp,256(zero)
     188:	50800006 	beqzl	a0,1a4 <ABIFlags_flags2+0x190>
     18c:	01000000 	0x1000000
     190:	006a099c 	0x6a099c
     194:	007b1e01 	0x7b1e01
     198:	91020000 	lbu	v0,0(t0)
     19c:	02000070 	tge	s0,zero,0x1
     1a0:	04000001 	bltz	zero,1a8 <ABIFlags_flags2+0x194>
     1a4:	0000b000 	sll	s6,zero,0x0
     1a8:	22010400 	addi	at,s0,1024
     1ac:	01000001 	movf	zero,t0,$fcc0
     1b0:	000000d6 	0xd6
     1b4:	8000073c 	lb	zero,1852(zero)
     1b8:	00000028 	0x28
     1bc:	00000268 	0x268
     1c0:	10070402 	beq	zero,a3,11cc <ABIFlags_flags2+0x11b8>
     1c4:	03000001 	movf	zero,t8,$fcc0
     1c8:	6e690504 	0x6e690504
     1cc:	04020074 	bltzl	zero,3a0 <ABIFlags_flags2+0x38c>
     1d0:	0000ab05 	0xab05
     1d4:	06010200 	bgez	s0,9d8 <ABIFlags_flags2+0x9c4>
     1d8:	000001cc 	syscall	0x7
     1dc:	ca080102 	lwc2	$8,258(s0)
     1e0:	02000001 	movf	zero,s0,$fcc0
     1e4:	02010502 	0x2010502
     1e8:	02020000 	0x2020000
     1ec:	0000b407 	0xb407
     1f0:	05080200 	tgei	t0,512
     1f4:	000000a6 	0xa6
     1f8:	0b070802 	j	c1c2008 <__memory_size+0xc1a2808>
     1fc:	02000001 	movf	zero,s0,$fcc0
     200:	01150704 	0x1150704
     204:	04020000 	bltzl	zero,208 <ABIFlags_flags2+0x1f4>
     208:	00021707 	0x21707
     20c:	05040400 	0x5040400
     210:	00007604 	0x7604
     214:	01020600 	0x1020600
     218:	0001d308 	0x1d308
     21c:	00c70700 	0xc70700
     220:	02040000 	0x2040000
     224:	00009d05 	0x9d05
     228:	020b0800 	0x20b0800
     22c:	08000000 	j	0 <hardware_exit_hook>
     230:	000001ec 	0x1ec
     234:	01f80801 	movf	at,t7,$fcc6
     238:	00020000 	sll	zero,v0,0x0
     23c:	00021009 	0x21009
     240:	28440300 	slti	a0,v0,768
     244:	3c000000 	lui	zero,0x0
     248:	28800007 	slti	zero,a0,7
     24c:	01000000 	0x1000000
     250:	0000e59c 	0xe59c
     254:	6e660a00 	0x6e660a00
     258:	703d0100 	0x703d0100
     25c:	00000000 	nop
     260:	0b000000 	j	c000000 <__memory_size+0xbfe0800>
     264:	80000758 	lb	zero,1880(zero)
     268:	000000e5 	0xe5
     26c:	0157010c 	syscall	0x55c04
     270:	56010c30 	bnel	s0,at,3334 <ABIFlags_flags2+0x3320>
     274:	010c3001 	movf	a2,t0,$fcc3
     278:	01f30355 	0x1f30355
     27c:	54010c54 	bnel	zero,at,33d0 <ABIFlags_flags2+0x33bc>
     280:	00003001 	movf	a2,zero,$fcc0
     284:	0001d80d 	break	0x1,0x360
     288:	280d0200 	slti	t5,zero,512
     28c:	0e000000 	jal	8000000 <__memory_size+0x7fe0800>
     290:	00000028 	0x28
     294:	0000700e 	0x700e
     298:	006e0e00 	0x6e0e00
     29c:	6e0e0000 	0x6e0e0000
     2a0:	00000000 	nop
     2a4:	0008dc00 	sll	k1,t0,0x10
     2a8:	63000400 	0x63000400
     2ac:	04000001 	bltz	zero,2b4 <ABIFlags_flags2+0x2a0>
     2b0:	00012201 	0x12201
     2b4:	031d0100 	0x31d0100
     2b8:	07640000 	0x7640000
     2bc:	003c8000 	0x3c8000
     2c0:	03150000 	0x3150000
     2c4:	04020000 	bltzl	zero,2c8 <ABIFlags_flags2+0x2b4>
     2c8:	00011007 	srav	v0,at,zero
     2cc:	05040300 	0x5040300
     2d0:	00746e69 	0x746e69
     2d4:	ab050402 	swl	a1,1026(t8)
     2d8:	02000000 	0x2000000
     2dc:	01cc0601 	0x1cc0601
     2e0:	01020000 	0x1020000
     2e4:	0001ca08 	0x1ca08
     2e8:	05020200 	bltzl	t0,aec <ABIFlags_flags2+0xad8>
     2ec:	00000201 	0x201
     2f0:	b4070202 	0xb4070202
     2f4:	02000000 	0x2000000
     2f8:	00a60508 	0xa60508
     2fc:	08020000 	j	80000 <__memory_size+0x60800>
     300:	00010b07 	0x10b07
     304:	043f0400 	synci	1024(at)
     308:	07020000 	bltzl	t8,30c <ABIFlags_flags2+0x2f8>
     30c:	00000028 	0x28
     310:	00041d04 	0x41d04
     314:	2f100300 	sltiu	s0,t8,768
     318:	04000000 	bltz	zero,31c <ABIFlags_flags2+0x308>
     31c:	00000500 	sll	zero,zero,0x14
     320:	002f2703 	0x2f2703
     324:	ec050000 	swc3	$5,0(zero)
     328:	04000003 	bltz	zero,338 <ABIFlags_flags2+0x324>
     32c:	008d0161 	0x8d0161
     330:	04020000 	bltzl	zero,334 <ABIFlags_flags2+0x320>
     334:	00011507 	0x11507
     338:	03040600 	0x3040600
     33c:	0000b34a 	0xb34a
     340:	03e60700 	0x3e60700
     344:	4c030000 	lwxc1	$f0,v1(zero)
     348:	00000081 	0x81
     34c:	00039807 	srav	s3,v1,zero
     350:	b34d0300 	0xb34d0300
     354:	00000000 	nop
     358:	00003d08 	0x3d08
     35c:	0000c300 	sll	t8,zero,0xc
     360:	00c30900 	0xc30900
     364:	00030000 	sll	zero,v1,0x0
     368:	17070402 	bne	t8,a3,1374 <ABIFlags_flags2+0x1360>
     36c:	0a000002 	j	8000008 <__memory_size+0x7fe0808>
     370:	eb470308 	swc2	$7,776(k0)
     374:	0b000000 	j	c000000 <__memory_size+0xbfe0800>
     378:	000004ea 	0x4ea
     37c:	00284903 	0x284903
     380:	0b000000 	j	c000000 <__memory_size+0xbfe0800>
     384:	000004f2 	tlt	zero,zero,0x13
     388:	00944e03 	0x944e03
     38c:	00040000 	sll	zero,a0,0x0
     390:	00047d04 	0x47d04
     394:	ca4f0300 	lwc2	$15,768(s2)
     398:	04000000 	bltz	zero,39c <ABIFlags_flags2+0x388>
     39c:	0000035b 	0x35b
     3a0:	00605303 	0x605303
     3a4:	040c0000 	teqi	zero,0
     3a8:	00053c04 	0x53c04
     3ac:	21160500 	addi	s6,t0,1280
     3b0:	0d000000 	jal	4000000 <__memory_size+0x3fe0800>
     3b4:	0000036c 	0x36c
     3b8:	612d0518 	0x612d0518
     3bc:	0b000001 	j	c000004 <__memory_size+0xbfe0804>
     3c0:	0000049e 	0x49e
     3c4:	01612f05 	0x1612f05
     3c8:	0e000000 	jal	8000000 <__memory_size+0x7fe0800>
     3cc:	05006b5f 	bltz	t0,1b14c <ABIFlags_flags2+0x1b138>
     3d0:	00002830 	tge	zero,zero,0xa0
     3d4:	d50b0400 	ldc1	$f11,1024(t0)
     3d8:	05000004 	bltz	t0,3ec <ABIFlags_flags2+0x3d8>
     3dc:	00002830 	tge	zero,zero,0xa0
     3e0:	550b0800 	bnel	t0,t3,23e4 <ABIFlags_flags2+0x23d0>
     3e4:	05000003 	bltz	t0,3f4 <ABIFlags_flags2+0x3e0>
     3e8:	00002830 	tge	zero,zero,0xa0
     3ec:	830b0c00 	lb	t3,3072(t8)
     3f0:	05000005 	bltz	t0,408 <ABIFlags_flags2+0x3f4>
     3f4:	00002830 	tge	zero,zero,0xa0
     3f8:	5f0e1000 	0x5f0e1000
     3fc:	31050078 	andi	a1,t0,0x78
     400:	00000167 	0x167
     404:	040f0014 	0x40f0014
     408:	0000010e 	0x10e
     40c:	00010308 	0x10308
     410:	00017700 	sll	t6,at,0x1c
     414:	00c30900 	0xc30900
     418:	00000000 	nop
     41c:	0003930d 	break	0x3,0x24c
     420:	35052400 	ori	a1,t0,0x2400
     424:	000001f0 	tge	zero,zero,0x7
     428:	00028d0b 	0x28d0b
     42c:	28370500 	slti	s7,at,1280
     430:	00000000 	nop
     434:	0005120b 	0x5120b
     438:	28380500 	slti	t8,at,1280
     43c:	04000000 	bltz	zero,440 <ABIFlags_flags2+0x42c>
     440:	0002a20b 	0x2a20b
     444:	28390500 	slti	t9,at,1280
     448:	08000000 	j	0 <hardware_exit_hook>
     44c:	0005fc0b 	0x5fc0b
     450:	283a0500 	slti	k0,at,1280
     454:	0c000000 	jal	0 <hardware_exit_hook>
     458:	0004090b 	0x4090b
     45c:	283b0500 	slti	k1,at,1280
     460:	10000000 	b	464 <ABIFlags_flags2+0x450>
     464:	0005080b 	movn	at,zero,a1
     468:	283c0500 	slti	gp,at,1280
     46c:	14000000 	bnez	zero,470 <ABIFlags_flags2+0x45c>
     470:	0005880b 	movn	s1,zero,a1
     474:	283d0500 	slti	sp,at,1280
     478:	18000000 	blez	zero,47c <ABIFlags_flags2+0x468>
     47c:	00045f0b 	0x45f0b
     480:	283e0500 	slti	s8,at,1280
     484:	1c000000 	bgtz	zero,488 <ABIFlags_flags2+0x474>
     488:	0005c30b 	0x5c30b
     48c:	283f0500 	slti	ra,at,1280
     490:	20000000 	addi	zero,zero,0
     494:	02b11000 	0x2b11000
     498:	01080000 	0x1080000
     49c:	02304805 	lsa	t1,s1,s0,0x1
     4a0:	2c0b0000 	sltiu	t3,zero,0
     4a4:	05000002 	bltz	t0,4b0 <ABIFlags_flags2+0x49c>
     4a8:	00023049 	0x23049
     4ac:	200b0000 	addi	t3,zero,0
     4b0:	05000002 	bltz	t0,4bc <ABIFlags_flags2+0x4a8>
     4b4:	0002304a 	0x2304a
     4b8:	2e118000 	sltiu	s1,s0,-32768
     4bc:	05000005 	bltz	t0,4d4 <ABIFlags_flags2+0x4c0>
     4c0:	0001034c 	syscall	0x40d
     4c4:	11010000 	beq	t0,at,4c8 <ABIFlags_flags2+0x4b4>
     4c8:	000002d6 	0x2d6
     4cc:	01034f05 	0x1034f05
     4d0:	01040000 	0x1040000
     4d4:	01010800 	0x1010800
     4d8:	02400000 	0x2400000
     4dc:	c3090000 	ll	t1,0(t8)
     4e0:	1f000000 	bgtz	t8,4e4 <ABIFlags_flags2+0x4d0>
     4e4:	020f1000 	0x20f1000
     4e8:	01900000 	0x1900000
     4ec:	027e5b05 	0x27e5b05
     4f0:	9e0b0000 	0x9e0b0000
     4f4:	05000004 	bltz	t0,508 <ABIFlags_flags2+0x4f4>
     4f8:	00027e5c 	0x27e5c
     4fc:	b60b0000 	0xb60b0000
     500:	05000004 	bltz	t0,514 <ABIFlags_flags2+0x500>
     504:	0000285d 	0x285d
     508:	500b0400 	beql	zero,t3,150c <ABIFlags_flags2+0x14f8>
     50c:	05000003 	bltz	t0,51c <ABIFlags_flags2+0x508>
     510:	0002845f 	0x2845f
     514:	b10b0800 	0xb10b0800
     518:	05000002 	bltz	t0,524 <ABIFlags_flags2+0x510>
     51c:	0001f060 	0x1f060
     520:	0f008800 	jal	c022000 <__memory_size+0xc002800>
     524:	00024004 	sllv	t0,v0,zero
     528:	02940800 	0x2940800
     52c:	02940000 	0x2940000
     530:	c3090000 	ll	t1,0(t8)
     534:	1f000000 	bgtz	t8,538 <ABIFlags_flags2+0x524>
     538:	9a040f00 	lwr	a0,3840(s0)
     53c:	12000002 	beqz	s0,548 <ABIFlags_flags2+0x534>
     540:	0004690d 	break	0x4,0x1a4
     544:	73050800 	madd	$ac1,t8,a1
     548:	000002c0 	sll	zero,zero,0xb
     54c:	00029c0b 	0x29c0b
     550:	c0740500 	ll	s4,1280(v1)
     554:	00000002 	srl	zero,zero,0x0
     558:	00087d0b 	0x87d0b
     55c:	28750500 	slti	s5,v1,1280
     560:	04000000 	bltz	zero,564 <ABIFlags_flags2+0x550>
     564:	3d040f00 	0x3d040f00
     568:	0d000000 	jal	4000000 <__memory_size+0x3fe0800>
     56c:	00000488 	0x488
     570:	f0b30568 	0xf0b30568
     574:	0e000003 	jal	800000c <__memory_size+0x7fe080c>
     578:	0500705f 	bltz	t0,1c6f8 <ABIFlags_flags2+0x1c6e4>
     57c:	0002c0b4 	teq	zero,v0,0x302
     580:	5f0e0000 	0x5f0e0000
     584:	b5050072 	0xb5050072
     588:	00000028 	0x28
     58c:	775f0e04 	jalx	d7c3810 <__memory_size+0xd7a4010>
     590:	28b60500 	slti	s6,a1,1280
     594:	08000000 	j	0 <hardware_exit_hook>
     598:	0002cf0b 	0x2cf0b
     59c:	44b70500 	0x44b70500
     5a0:	0c000000 	jal	0 <hardware_exit_hook>
     5a4:	0003af0b 	0x3af0b
     5a8:	44b80500 	0x44b80500
     5ac:	0e000000 	jal	8000000 <__memory_size+0x7fe0800>
     5b0:	66625f0e 	0x66625f0e
     5b4:	9bb90500 	lwr	t9,1280(sp)
     5b8:	10000002 	b	5c4 <ABIFlags_flags2+0x5b0>
     5bc:	0002670b 	0x2670b
     5c0:	28ba0500 	slti	k0,a1,1280
     5c4:	18000000 	blez	zero,5c8 <ABIFlags_flags2+0x5b4>
     5c8:	0002bf0b 	0x2bf0b
     5cc:	01c10500 	0x1c10500
     5d0:	1c000001 	bgtz	zero,5d8 <ABIFlags_flags2+0x5c4>
     5d4:	0003830b 	0x3830b
     5d8:	53c30500 	beql	s8,v1,19dc <ABIFlags_flags2+0x19c8>
     5dc:	20000005 	addi	zero,zero,5
     5e0:	0003fb0b 	0x3fb0b
     5e4:	82c50500 	lb	a1,1280(s6)
     5e8:	24000005 	li	zero,5
     5ec:	0004fa0b 	0x4fa0b
     5f0:	a6c80500 	sh	t0,1280(s6)
     5f4:	28000005 	slti	zero,zero,5
     5f8:	0005dd0b 	0x5dd0b
     5fc:	c0c90500 	ll	t1,1280(a2)
     600:	2c000005 	sltiu	zero,zero,5
     604:	62755f0e 	0x62755f0e
     608:	9bcc0500 	lwr	t4,1280(s8)
     60c:	30000002 	andi	zero,zero,0x2
     610:	70755f0e 	q16add	xr12,xr7,xr5,xr13,AA,LW
     614:	c0cd0500 	ll	t5,1280(a2)
     618:	38000002 	xori	zero,zero,0x2
     61c:	72755f0e 	q16add	xr12,xr7,xr5,xr13,SA,LW
     620:	28ce0500 	slti	t6,a2,1280
     624:	3c000000 	lui	zero,0x0
     628:	0002960b 	0x2960b
     62c:	c6d10500 	lwc1	$f17,1280(s6)
     630:	40000005 	mfc0	zero,$0,5
     634:	0005b50b 	0x5b50b
     638:	d6d20500 	ldc1	$f18,1280(s6)
     63c:	43000005 	c0	0x1000005
     640:	626c5f0e 	0x626c5f0e
     644:	9bd50500 	lwr	s5,1280(s8)
     648:	44000002 	mfc1	zero,$f0
     64c:	0002e50b 	0x2e50b
     650:	28d80500 	slti	t8,a2,1280
     654:	4c000000 	lwxc1	$f0,zero(zero)
     658:	0002f60b 	0x2f60b
     65c:	6bd90500 	0x6bd90500
     660:	50000000 	beqzl	zero,664 <ABIFlags_flags2+0x650>
     664:	00060c0b 	0x60c0b
     668:	0edc0500 	jal	b701400 <__memory_size+0xb6e1c00>
     66c:	54000004 	bnezl	zero,680 <ABIFlags_flags2+0x66c>
     670:	0006db0b 	0x6db0b
     674:	f6e00500 	sdc1	$f0,1280(s7)
     678:	58000000 	blezl	zero,67c <ABIFlags_flags2+0x668>
     67c:	0004900b 	movn	s2,zero,a0
     680:	ebe20500 	swc2	$2,1280(ra)
     684:	5c000000 	bgtzl	zero,688 <ABIFlags_flags2+0x674>
     688:	0003f30b 	0x3f30b
     68c:	28e30500 	slti	v1,a3,1280
     690:	64000000 	0x64000000
     694:	00281300 	0x281300
     698:	040e0000 	tnei	zero,0
     69c:	0e140000 	jal	8500000 <__memory_size+0x84e0800>
     6a0:	14000004 	bnez	zero,6b4 <ABIFlags_flags2+0x6a0>
     6a4:	00000101 	0x101
     6a8:	00054614 	0x54614
     6ac:	00281400 	0x281400
     6b0:	0f000000 	jal	c000000 <__memory_size+0xbfe0800>
     6b4:	00041404 	0x41404
     6b8:	04dd1500 	0x4dd1500
     6bc:	04280000 	tgei	at,0
     6c0:	46023905 	c1	0x23905
     6c4:	16000005 	bnez	s0,6dc <ABIFlags_flags2+0x6c8>
     6c8:	00000a11 	0xa11
     6cc:	28023b05 	slti	v0,zero,15109
     6d0:	00000000 	nop
     6d4:	0002de16 	0x2de16
     6d8:	02400500 	0x2400500
     6dc:	0000062d 	0x62d
     6e0:	039f1604 	0x39f1604
     6e4:	40050000 	mfc0	a1,c0_index
     6e8:	00062d02 	srl	a1,a2,0x14
     6ec:	64160800 	0x64160800
     6f0:	05000003 	bltz	t0,700 <ABIFlags_flags2+0x6ec>
     6f4:	062d0240 	0x62d0240
     6f8:	160c0000 	bne	s0,t4,6fc <ABIFlags_flags2+0x6e8>
     6fc:	000004b1 	tgeu	zero,zero,0x12
     700:	28024205 	slti	v0,zero,16901
     704:	10000000 	b	708 <ABIFlags_flags2+0x6f4>
     708:	00023c16 	0x23c16
     70c:	02430500 	0x2430500
     710:	0000080f 	0x80f
     714:	05641614 	0x5641614
     718:	45050000 	bc1t	$fcc1,71c <ABIFlags_flags2+0x708>
     71c:	00002802 	srl	a1,zero,0x0
     720:	bb163000 	swr	s6,12288(t8)
     724:	05000004 	bltz	t0,738 <ABIFlags_flags2+0x724>
     728:	05770246 	0x5770246
     72c:	16340000 	bne	s1,s4,730 <ABIFlags_flags2+0x71c>
     730:	00000412 	0x412
     734:	28024805 	slti	v0,zero,18437
     738:	38000000 	xori	zero,zero,0x0
     73c:	0004cb16 	0x4cb16
     740:	024a0500 	0x24a0500
     744:	0000082a 	slt	at,zero,zero
     748:	03de163c 	0x3de163c
     74c:	4d050000 	lwxc1	$f0,a1(t0)
     750:	00016102 	srl	t4,at,0x4
     754:	89164000 	lwl	s6,16384(t0)
     758:	05000003 	bltz	t0,768 <ABIFlags_flags2+0x754>
     75c:	0028024e 	0x28024e
     760:	16440000 	bne	s2,a0,764 <ABIFlags_flags2+0x750>
     764:	000005f7 	0x5f7
     768:	61024f05 	0x61024f05
     76c:	48000001 	mfc2	zero,$0,1
     770:	00043516 	0x43516
     774:	02500500 	0x2500500
     778:	00000830 	tge	zero,zero,0x20
     77c:	03a7164c 	syscall	0xe9c59
     780:	53050000 	beql	t8,a1,784 <ABIFlags_flags2+0x770>
     784:	00002802 	srl	a1,zero,0x0
     788:	ee165000 	swc3	$22,20480(s0)
     78c:	05000002 	bltz	t0,798 <ABIFlags_flags2+0x784>
     790:	05460254 	0x5460254
     794:	16540000 	bne	s2,s4,798 <ABIFlags_flags2+0x784>
     798:	00000451 	0x451
     79c:	ed027705 	swc3	$2,30469(t0)
     7a0:	58000007 	blezl	zero,7c0 <ABIFlags_flags2+0x7ac>
     7a4:	00020f17 	0x20f17
     7a8:	027b0500 	0x27b0500
     7ac:	0000027e 	0x27e
     7b0:	bc170148 	cache	0x17,328(zero)
     7b4:	05000003 	bltz	t0,7c4 <ABIFlags_flags2+0x7b0>
     7b8:	0240027c 	0x240027c
     7bc:	014c0000 	0x14c0000
     7c0:	0005ab17 	0x5ab17
     7c4:	02800500 	0x2800500
     7c8:	00000841 	0x841
     7cc:	c71702dc 	lwc1	$f23,732(t8)
     7d0:	05000002 	bltz	t0,7dc <ABIFlags_flags2+0x7c8>
     7d4:	05f20285 	bltzall	t7,11ec <ABIFlags_flags2+0x11d8>
     7d8:	02e00000 	0x2e00000
     7dc:	0002ac17 	0x2ac17
     7e0:	02860500 	0x2860500
     7e4:	0000084d 	break	0x0,0x21
     7e8:	0f0002ec 	jal	c000bb0 <__memory_size+0xbfe13b0>
     7ec:	00054c04 	0x54c04
     7f0:	08010200 	j	40800 <__memory_size+0x21000>
     7f4:	000001d3 	0x1d3
     7f8:	03f0040f 	0x3f0040f
     7fc:	28130000 	slti	s3,zero,0
     800:	77000000 	jalx	c000000 <__memory_size+0xbfe0800>
     804:	14000005 	bnez	zero,81c <ABIFlags_flags2+0x808>
     808:	0000040e 	0x40e
     80c:	00010114 	0x10114
     810:	05771400 	0x5771400
     814:	28140000 	slti	s4,zero,0
     818:	00000000 	nop
     81c:	057d040f 	0x57d040f
     820:	4c180000 	lwxc1	$f0,t8(zero)
     824:	0f000005 	jal	c000014 <__memory_size+0xbfe0814>
     828:	00055904 	0x55904
     82c:	00761300 	0x761300
     830:	05a60000 	0x5a60000
     834:	0e140000 	jal	8500000 <__memory_size+0x84e0800>
     838:	14000004 	bnez	zero,84c <ABIFlags_flags2+0x838>
     83c:	00000101 	0x101
     840:	00007614 	0x7614
     844:	00281400 	0x281400
     848:	0f000000 	jal	c000000 <__memory_size+0xbfe0800>
     84c:	00058804 	sllv	s1,a1,zero
     850:	00281300 	0x281300
     854:	05c00000 	bltz	t6,858 <ABIFlags_flags2+0x844>
     858:	0e140000 	jal	8500000 <__memory_size+0x84e0800>
     85c:	14000004 	bnez	zero,870 <ABIFlags_flags2+0x85c>
     860:	00000101 	0x101
     864:	ac040f00 	sw	a0,3840(zero)
     868:	08000005 	j	14 <ABIFlags_flags2>
     86c:	0000003d 	0x3d
     870:	000005d6 	0x5d6
     874:	0000c309 	0xc309
     878:	08000200 	j	800 <ABIFlags_flags2+0x7ec>
     87c:	0000003d 	0x3d
     880:	000005e6 	0x5e6
     884:	0000c309 	0xc309
     888:	05000000 	bltz	t0,88c <ABIFlags_flags2+0x878>
     88c:	00000476 	tne	zero,zero,0x11
     890:	c6011d05 	lwc1	$f1,7429(s0)
     894:	19000002 	blez	t0,8a0 <ABIFlags_flags2+0x88c>
     898:	00000592 	0x592
     89c:	0121050c 	syscall	0x48414
     8a0:	00000627 	0x627
     8a4:	00049e16 	0x49e16
     8a8:	01230500 	0x1230500
     8ac:	00000627 	0x627
     8b0:	03b51600 	0x3b51600
     8b4:	24050000 	li	a1,0
     8b8:	00002801 	movf	a1,zero,$fcc0
     8bc:	70160400 	0x70160400
     8c0:	05000004 	bltz	t0,8d4 <ABIFlags_flags2+0x8c0>
     8c4:	062d0125 	0x62d0125
     8c8:	00080000 	sll	zero,t0,0x0
     8cc:	05f2040f 	bltzall	t7,190c <ABIFlags_flags2+0x18f8>
     8d0:	040f0000 	0x40f0000
     8d4:	000005e6 	0x5e6
     8d8:	00023419 	0x23419
     8dc:	3d050e00 	0x3d050e00
     8e0:	00066801 	0x66801
     8e4:	04e41600 	0x4e41600
     8e8:	3e050000 	0x3e050000
     8ec:	00066801 	0x66801
     8f0:	1b160000 	0x1b160000
     8f4:	05000005 	bltz	t0,90c <ABIFlags_flags2+0x8f8>
     8f8:	0668013f 	tgei	s3,319
     8fc:	16060000 	bne	s0,a2,900 <ABIFlags_flags2+0x8ec>
     900:	00000537 	0x537
     904:	4b014005 	c2	0x1014005
     908:	0c000000 	jal	0 <hardware_exit_hook>
     90c:	004b0800 	0x4b0800
     910:	06780000 	0x6780000
     914:	c3090000 	ll	t1,0(t8)
     918:	02000000 	0x2000000
     91c:	05d01a00 	bltzal	t6,7120 <ABIFlags_flags2+0x710c>
     920:	07790258 	0x7790258
     924:	76160000 	jalx	8580000 <__memory_size+0x8560800>
     928:	05000005 	bltz	t0,940 <ABIFlags_flags2+0x92c>
     92c:	008d025a 	0x8d025a
     930:	16000000 	bnez	s0,934 <ABIFlags_flags2+0x920>
     934:	00000521 	0x521
     938:	46025b05 	c1	0x25b05
     93c:	04000005 	bltz	zero,954 <ABIFlags_flags2+0x940>
     940:	0003d116 	0x3d116
     944:	025c0500 	0x25c0500
     948:	00000779 	0x779
     94c:	05ce1608 	tnei	t6,5640
     950:	5d050000 	0x5d050000
     954:	00017702 	srl	t6,at,0x1c
     958:	74162400 	jalx	589000 <__memory_size+0x569800>
     95c:	05000003 	bltz	t0,96c <ABIFlags_flags2+0x958>
     960:	0028025e 	0x28025e
     964:	16480000 	bne	s2,t0,968 <ABIFlags_flags2+0x954>
     968:	00000499 	0x499
     96c:	59025f05 	0x59025f05
     970:	50000000 	beqzl	zero,974 <ABIFlags_flags2+0x960>
     974:	0005e416 	0x5e416
     978:	02600500 	0x2600500
     97c:	00000633 	tltu	zero,zero,0x18
     980:	04a41658 	0x4a41658
     984:	61050000 	0x61050000
     988:	0000eb02 	srl	sp,zero,0xc
     98c:	e9166800 	swc2	$22,26624(t0)
     990:	05000005 	bltz	t0,9a8 <ABIFlags_flags2+0x994>
     994:	00eb0262 	0xeb0262
     998:	16700000 	bne	s3,s0,99c <ABIFlags_flags2+0x988>
     99c:	0000027f 	0x27f
     9a0:	eb026305 	swc2	$2,25349(t8)
     9a4:	78000000 	andi.b	$w0,$w0,0x0
     9a8:	0005a116 	0x5a116
     9ac:	02640500 	0x2640500
     9b0:	00000789 	0x789
     9b4:	03c51680 	0x3c51680
     9b8:	65050000 	0x65050000
     9bc:	00079902 	srl	s3,a3,0x4
     9c0:	44168800 	mfc1	s6,$f17
     9c4:	05000005 	bltz	t0,9dc <ABIFlags_flags2+0x9c8>
     9c8:	00280266 	0x280266
     9cc:	16a00000 	bnez	s5,9d0 <ABIFlags_flags2+0x9bc>
     9d0:	0000030f 	sync	0xc
     9d4:	eb026705 	swc2	$2,26373(t8)
     9d8:	a4000000 	sh	zero,0(zero)
     9dc:	00027016 	0x27016
     9e0:	02680500 	0x2680500
     9e4:	000000eb 	0xeb
     9e8:	02fe16ac 	0x2fe16ac
     9ec:	69050000 	0x69050000
     9f0:	0000eb02 	srl	sp,zero,0xc
     9f4:	4716b400 	bz.b	$w22,fffed9f8 <__flash_start+0x403ed9f8>
     9f8:	05000002 	bltz	t0,a04 <ABIFlags_flags2+0x9f0>
     9fc:	00eb026a 	0xeb026a
     a00:	16bc0000 	bne	s5,gp,a04 <ABIFlags_flags2+0x9f0>
     a04:	00000256 	0x256
     a08:	eb026b05 	swc2	$2,27397(t8)
     a0c:	c4000000 	lwc1	$f0,0(zero)
     a10:	00045616 	0x45616
     a14:	026c0500 	0x26c0500
     a18:	00000028 	0x28
     a1c:	4c0800cc 	0x4c0800cc
     a20:	89000005 	lwl	zero,5(t0)
     a24:	09000007 	j	400001c <__memory_size+0x3fe081c>
     a28:	000000c3 	sra	zero,zero,0x3
     a2c:	4c080019 	0x4c080019
     a30:	99000005 	lwr	zero,5(t0)
     a34:	09000007 	j	400001c <__memory_size+0x3fe081c>
     a38:	000000c3 	sra	zero,zero,0x3
     a3c:	4c080007 	mfc3	t0,$0,7
     a40:	a9000005 	swl	zero,5(t0)
     a44:	09000007 	j	400001c <__memory_size+0x3fe081c>
     a48:	000000c3 	sra	zero,zero,0x3
     a4c:	f01a0017 	0xf01a0017
     a50:	cd027105 	pref	0x2,28933(t0)
     a54:	16000007 	bnez	s0,a74 <ABIFlags_flags2+0xa60>
     a58:	00000402 	srl	zero,zero,0x10
     a5c:	cd027405 	pref	0x2,29701(t0)
     a60:	00000007 	srav	zero,zero,zero
     a64:	00059816 	0x59816
     a68:	02750500 	0x2750500
     a6c:	000007dd 	0x7dd
     a70:	c0080078 	ll	t0,120(zero)
     a74:	dd000002 	ldc3	$0,2(t0)
     a78:	09000007 	j	400001c <__memory_size+0x3fe081c>
     a7c:	000000c3 	sra	zero,zero,0x3
     a80:	8d08001d 	lw	t0,29(t0)
     a84:	ed000000 	swc3	$0,0(t0)
     a88:	09000007 	j	400001c <__memory_size+0x3fe081c>
     a8c:	000000c3 	sra	zero,zero,0x3
     a90:	f01b001d 	0xf01b001d
     a94:	0f025605 	jal	c095814 <__memory_size+0xc076014>
     a98:	1c000008 	bgtz	zero,abc <ABIFlags_flags2+0xaa8>
     a9c:	000004dd 	0x4dd
     aa0:	78026d05 	0x78026d05
     aa4:	1c000006 	bgtz	zero,ac0 <ABIFlags_flags2+0xaac>
     aa8:	000005bb 	0x5bb
     aac:	a9027605 	swl	v0,30213(t0)
     ab0:	00000007 	srav	zero,zero,zero
     ab4:	00054c08 	0x54c08
     ab8:	00081f00 	sll	v1,t0,0x1c
     abc:	00c30900 	0xc30900
     ac0:	00180000 	sll	zero,t8,0x0
     ac4:	00082a1d 	0x82a1d
     ac8:	040e1400 	tnei	zero,5120
     acc:	0f000000 	jal	c000000 <__memory_size+0xbfe0800>
     ad0:	00081f04 	0x81f04
     ad4:	61040f00 	0x61040f00
     ad8:	1d000001 	bgtz	t0,ae0 <ABIFlags_flags2+0xacc>
     adc:	00000841 	0x841
     ae0:	00002814 	0x2814
     ae4:	040f0000 	0x40f0000
     ae8:	00000847 	0x847
     aec:	0836040f 	j	d8103c <__memory_size+0xd6183c>
     af0:	e6080000 	swc1	$f8,0(s0)
     af4:	5d000005 	bgtzl	t0,b0c <ABIFlags_flags2+0xaf8>
     af8:	09000008 	j	4000020 <__memory_size+0x3fe0820>
     afc:	000000c3 	sra	zero,zero,0x3
     b00:	b11e0002 	0xb11e0002
     b04:	06000007 	bltz	s0,b24 <ABIFlags_flags2+0xb10>
     b08:	00076454 	0x76454
     b0c:	00003c80 	sll	a3,zero,0x12
     b10:	ab9c0100 	swl	gp,256(gp)
     b14:	1f000008 	bgtz	t8,b38 <ABIFlags_flags2+0xb24>
     b18:	000007aa 	0x7aa
     b1c:	00283a01 	0x283a01
     b20:	002c0000 	0x2c0000
     b24:	7c200000 	ext	zero,at,0x0,0x1
     b28:	bc800007 	cache	0x0,7(a0)
     b2c:	9a000008 	lwr	zero,8(s0)
     b30:	21000008 	addi	zero,t0,8
     b34:	30015501 	andi	at,zero,0x5501
     b38:	02540121 	0x2540121
     b3c:	22000080 	addi	zero,s0,128
     b40:	800007a0 	lb	zero,1952(zero)
     b44:	000008d2 	0x8d2
     b48:	02540121 	0x2540121
     b4c:	00000080 	sll	zero,zero,0x2
     b50:	00055123 	0x55123
     b54:	02fb0500 	0x2fb0500
     b58:	000008b7 	0x8b7
     b5c:	00040e18 	0x40e18
     b60:	04242400 	0x4242400
     b64:	0c070000 	jal	1c0000 <__memory_size+0x1a0800>
     b68:	000008d2 	0x8d2
     b6c:	00002814 	0x2814
     b70:	01011400 	0x1011400
     b74:	25000000 	addiu	zero,t0,0
     b78:	000007b0 	tge	zero,zero,0x1e
     b7c:	28141108 	slti	s4,zero,4360
     b80:	00000000 	nop
     b84:	00088c00 	sll	s1,t0,0x10
     b88:	47000400 	bz.b	$w0,1b8c <ABIFlags_flags2+0x1b78>
     b8c:	04000003 	bltz	zero,b9c <ABIFlags_flags2+0xb88>
     b90:	00012201 	0x12201
     b94:	06120100 	bltzall	s0,f98 <ABIFlags_flags2+0xf84>
     b98:	04750000 	0x4750000
     b9c:	04020000 	bltzl	zero,ba0 <ABIFlags_flags2+0xb8c>
     ba0:	0000ab05 	0xab05
     ba4:	07040200 	0x7040200
     ba8:	00000110 	0x110
     bac:	69050403 	0x69050403
     bb0:	0200746e 	0x200746e
     bb4:	01cc0601 	0x1cc0601
     bb8:	01020000 	0x1020000
     bbc:	0001ca08 	0x1ca08
     bc0:	05020200 	bltzl	t0,13c4 <ABIFlags_flags2+0x13b0>
     bc4:	00000201 	0x201
     bc8:	b4070202 	0xb4070202
     bcc:	02000000 	0x2000000
     bd0:	00a60508 	0xa60508
     bd4:	08020000 	j	80000 <__memory_size+0x60800>
     bd8:	00010b07 	0x10b07
     bdc:	043f0400 	synci	1024(at)
     be0:	07010000 	bgez	t8,be4 <ABIFlags_flags2+0xbd0>
     be4:	00000027 	nor	zero,zero,zero
     be8:	00041d04 	0x41d04
     bec:	19100200 	0x19100200
     bf0:	04000000 	bltz	zero,bf4 <ABIFlags_flags2+0xbe0>
     bf4:	00000500 	sll	zero,zero,0x14
     bf8:	00192702 	srl	a0,t9,0x1c
     bfc:	ec050000 	swc3	$5,0(zero)
     c00:	03000003 	0x3000003
     c04:	00850161 	0x850161
     c08:	04020000 	bltzl	zero,c0c <ABIFlags_flags2+0xbf8>
     c0c:	00011507 	0x11507
     c10:	02040600 	0x2040600
     c14:	0000ab4a 	0xab4a
     c18:	03e60700 	0x3e60700
     c1c:	4c020000 	lwxc1	$f0,v0(zero)
     c20:	00000079 	0x79
     c24:	00039807 	srav	s3,v1,zero
     c28:	ab4d0200 	swl	t5,512(k0)
     c2c:	00000000 	nop
     c30:	00003508 	0x3508
     c34:	0000bb00 	sll	s7,zero,0xc
     c38:	00bb0900 	0xbb0900
     c3c:	00030000 	sll	zero,v1,0x0
     c40:	17070402 	bne	t8,a3,1c4c <ABIFlags_flags2+0x1c38>
     c44:	0a000002 	j	8000008 <__memory_size+0x7fe0808>
     c48:	e3470208 	sc	a3,520(k0)
     c4c:	0b000000 	j	c000000 <__memory_size+0xbfe0800>
     c50:	000004ea 	0x4ea
     c54:	00274902 	ror	t1,a3,0x4
     c58:	0b000000 	j	c000000 <__memory_size+0xbfe0800>
     c5c:	000004f2 	tlt	zero,zero,0x13
     c60:	008c4e02 	0x8c4e02
     c64:	00040000 	sll	zero,a0,0x0
     c68:	00047d04 	0x47d04
     c6c:	c24f0200 	ll	t7,512(s2)
     c70:	04000000 	bltz	zero,c74 <ABIFlags_flags2+0xc60>
     c74:	0000035b 	0x35b
     c78:	00585302 	0x585302
     c7c:	040c0000 	teqi	zero,0
     c80:	00053c04 	0x53c04
     c84:	20160400 	addi	s6,zero,1024
     c88:	0d000000 	jal	4000000 <__memory_size+0x3fe0800>
     c8c:	0000036c 	0x36c
     c90:	592d0418 	0x592d0418
     c94:	0b000001 	j	c000004 <__memory_size+0xbfe0804>
     c98:	0000049e 	0x49e
     c9c:	01592f04 	0x1592f04
     ca0:	0e000000 	jal	8000000 <__memory_size+0x7fe0800>
     ca4:	04006b5f 	bltz	zero,1ba24 <ABIFlags_flags2+0x1ba10>
     ca8:	00002730 	tge	zero,zero,0x9c
     cac:	d50b0400 	ldc1	$f11,1024(t0)
     cb0:	04000004 	bltz	zero,cc4 <ABIFlags_flags2+0xcb0>
     cb4:	00002730 	tge	zero,zero,0x9c
     cb8:	550b0800 	bnel	t0,t3,2cbc <ABIFlags_flags2+0x2ca8>
     cbc:	04000003 	bltz	zero,ccc <ABIFlags_flags2+0xcb8>
     cc0:	00002730 	tge	zero,zero,0x9c
     cc4:	830b0c00 	lb	t3,3072(t8)
     cc8:	04000005 	bltz	zero,ce0 <ABIFlags_flags2+0xccc>
     ccc:	00002730 	tge	zero,zero,0x9c
     cd0:	5f0e1000 	0x5f0e1000
     cd4:	31040078 	andi	a0,t0,0x78
     cd8:	0000015f 	0x15f
     cdc:	040f0014 	0x40f0014
     ce0:	00000106 	0x106
     ce4:	0000fb08 	0xfb08
     ce8:	00016f00 	sll	t5,at,0x1c
     cec:	00bb0900 	0xbb0900
     cf0:	00000000 	nop
     cf4:	0003930d 	break	0x3,0x24c
     cf8:	35042400 	ori	a0,t0,0x2400
     cfc:	000001e8 	0x1e8
     d00:	00028d0b 	0x28d0b
     d04:	27370400 	addiu	s7,t9,1024
     d08:	00000000 	nop
     d0c:	0005120b 	0x5120b
     d10:	27380400 	addiu	t8,t9,1024
     d14:	04000000 	bltz	zero,d18 <ABIFlags_flags2+0xd04>
     d18:	0002a20b 	0x2a20b
     d1c:	27390400 	addiu	t9,t9,1024
     d20:	08000000 	j	0 <hardware_exit_hook>
     d24:	0005fc0b 	0x5fc0b
     d28:	273a0400 	addiu	k0,t9,1024
     d2c:	0c000000 	jal	0 <hardware_exit_hook>
     d30:	0004090b 	0x4090b
     d34:	273b0400 	addiu	k1,t9,1024
     d38:	10000000 	b	d3c <ABIFlags_flags2+0xd28>
     d3c:	0005080b 	movn	at,zero,a1
     d40:	273c0400 	addiu	gp,t9,1024
     d44:	14000000 	bnez	zero,d48 <ABIFlags_flags2+0xd34>
     d48:	0005880b 	movn	s1,zero,a1
     d4c:	273d0400 	addiu	sp,t9,1024
     d50:	18000000 	blez	zero,d54 <ABIFlags_flags2+0xd40>
     d54:	00045f0b 	0x45f0b
     d58:	273e0400 	addiu	s8,t9,1024
     d5c:	1c000000 	bgtz	zero,d60 <ABIFlags_flags2+0xd4c>
     d60:	0005c30b 	0x5c30b
     d64:	273f0400 	addiu	ra,t9,1024
     d68:	20000000 	addi	zero,zero,0
     d6c:	02b11000 	0x2b11000
     d70:	01080000 	0x1080000
     d74:	02284804 	sllv	t1,t0,s1
     d78:	2c0b0000 	sltiu	t3,zero,0
     d7c:	04000002 	bltz	zero,d88 <ABIFlags_flags2+0xd74>
     d80:	00022849 	0x22849
     d84:	200b0000 	addi	t3,zero,0
     d88:	04000002 	bltz	zero,d94 <ABIFlags_flags2+0xd80>
     d8c:	0002284a 	0x2284a
     d90:	2e118000 	sltiu	s1,s0,-32768
     d94:	04000005 	bltz	zero,dac <ABIFlags_flags2+0xd98>
     d98:	0000fb4c 	syscall	0x3ed
     d9c:	11010000 	beq	t0,at,da0 <ABIFlags_flags2+0xd8c>
     da0:	000002d6 	0x2d6
     da4:	00fb4f04 	0xfb4f04
     da8:	01040000 	0x1040000
     dac:	00f90800 	0xf90800
     db0:	02380000 	0x2380000
     db4:	bb090000 	swr	t1,0(t8)
     db8:	1f000000 	bgtz	t8,dbc <ABIFlags_flags2+0xda8>
     dbc:	020f1000 	0x20f1000
     dc0:	01900000 	0x1900000
     dc4:	02765b04 	0x2765b04
     dc8:	9e0b0000 	0x9e0b0000
     dcc:	04000004 	bltz	zero,de0 <ABIFlags_flags2+0xdcc>
     dd0:	0002765c 	0x2765c
     dd4:	b60b0000 	0xb60b0000
     dd8:	04000004 	bltz	zero,dec <ABIFlags_flags2+0xdd8>
     ddc:	0000275d 	0x275d
     de0:	500b0400 	beql	zero,t3,1de4 <ABIFlags_flags2+0x1dd0>
     de4:	04000003 	bltz	zero,df4 <ABIFlags_flags2+0xde0>
     de8:	00027c5f 	0x27c5f
     dec:	b10b0800 	0xb10b0800
     df0:	04000002 	bltz	zero,dfc <ABIFlags_flags2+0xde8>
     df4:	0001e860 	0x1e860
     df8:	0f008800 	jal	c022000 <__memory_size+0xc002800>
     dfc:	00023804 	sllv	a3,v0,zero
     e00:	028c0800 	0x28c0800
     e04:	028c0000 	0x28c0000
     e08:	bb090000 	swr	t1,0(t8)
     e0c:	1f000000 	bgtz	t8,e10 <ABIFlags_flags2+0xdfc>
     e10:	92040f00 	lbu	a0,3840(s0)
     e14:	12000002 	beqz	s0,e20 <ABIFlags_flags2+0xe0c>
     e18:	0004690d 	break	0x4,0x1a4
     e1c:	73040800 	madd	$ac1,t8,a0
     e20:	000002b8 	0x2b8
     e24:	00029c0b 	0x29c0b
     e28:	b8740400 	swr	s4,1024(v1)
     e2c:	00000002 	srl	zero,zero,0x0
     e30:	00087d0b 	0x87d0b
     e34:	27750400 	addiu	s5,k1,1024
     e38:	04000000 	bltz	zero,e3c <ABIFlags_flags2+0xe28>
     e3c:	35040f00 	ori	a0,t0,0xf00
     e40:	0d000000 	jal	4000000 <__memory_size+0x3fe0800>
     e44:	00000488 	0x488
     e48:	e8b30468 	swc2	$19,1128(a1)
     e4c:	0e000003 	jal	800000c <__memory_size+0x7fe080c>
     e50:	0400705f 	bltz	zero,1cfd0 <ABIFlags_flags2+0x1cfbc>
     e54:	0002b8b4 	teq	zero,v0,0x2e2
     e58:	5f0e0000 	0x5f0e0000
     e5c:	b5040072 	0xb5040072
     e60:	00000027 	nor	zero,zero,zero
     e64:	775f0e04 	jalx	d7c3810 <__memory_size+0xd7a4010>
     e68:	27b60400 	addiu	s6,sp,1024
     e6c:	08000000 	j	0 <hardware_exit_hook>
     e70:	0002cf0b 	0x2cf0b
     e74:	3cb70400 	0x3cb70400
     e78:	0c000000 	jal	0 <hardware_exit_hook>
     e7c:	0003af0b 	0x3af0b
     e80:	3cb80400 	0x3cb80400
     e84:	0e000000 	jal	8000000 <__memory_size+0x7fe0800>
     e88:	66625f0e 	0x66625f0e
     e8c:	93b90400 	lbu	t9,1024(sp)
     e90:	10000002 	b	e9c <ABIFlags_flags2+0xe88>
     e94:	0002670b 	0x2670b
     e98:	27ba0400 	addiu	k0,sp,1024
     e9c:	18000000 	blez	zero,ea0 <ABIFlags_flags2+0xe8c>
     ea0:	0002bf0b 	0x2bf0b
     ea4:	f9c10400 	sdc2	$1,1024(t6)
     ea8:	1c000000 	bgtz	zero,eac <ABIFlags_flags2+0xe98>
     eac:	0003830b 	0x3830b
     eb0:	4bc30400 	c2	0x1c30400
     eb4:	20000005 	addi	zero,zero,5
     eb8:	0003fb0b 	0x3fb0b
     ebc:	7ac50400 	nori.b	$w16,$w0,0xc5
     ec0:	24000005 	li	zero,5
     ec4:	0004fa0b 	0x4fa0b
     ec8:	9ec80400 	0x9ec80400
     ecc:	28000005 	slti	zero,zero,5
     ed0:	0005dd0b 	0x5dd0b
     ed4:	b8c90400 	swr	t1,1024(a2)
     ed8:	2c000005 	sltiu	zero,zero,5
     edc:	62755f0e 	0x62755f0e
     ee0:	93cc0400 	lbu	t4,1024(s8)
     ee4:	30000002 	andi	zero,zero,0x2
     ee8:	70755f0e 	q16add	xr12,xr7,xr5,xr13,AA,LW
     eec:	b8cd0400 	swr	t5,1024(a2)
     ef0:	38000002 	xori	zero,zero,0x2
     ef4:	72755f0e 	q16add	xr12,xr7,xr5,xr13,SA,LW
     ef8:	27ce0400 	addiu	t6,s8,1024
     efc:	3c000000 	lui	zero,0x0
     f00:	0002960b 	0x2960b
     f04:	bed10400 	cache	0x11,1024(s6)
     f08:	40000005 	mfc0	zero,$0,5
     f0c:	0005b50b 	0x5b50b
     f10:	ced20400 	pref	0x12,1024(s6)
     f14:	43000005 	c0	0x1000005
     f18:	626c5f0e 	0x626c5f0e
     f1c:	93d50400 	lbu	s5,1024(s8)
     f20:	44000002 	mfc1	zero,$f0
     f24:	0002e50b 	0x2e50b
     f28:	27d80400 	addiu	t8,s8,1024
     f2c:	4c000000 	lwxc1	$f0,zero(zero)
     f30:	0002f60b 	0x2f60b
     f34:	63d90400 	0x63d90400
     f38:	50000000 	beqzl	zero,f3c <ABIFlags_flags2+0xf28>
     f3c:	00060c0b 	0x60c0b
     f40:	06dc0400 	0x6dc0400
     f44:	54000004 	bnezl	zero,f58 <ABIFlags_flags2+0xf44>
     f48:	0006db0b 	0x6db0b
     f4c:	eee00400 	swc3	$0,1024(s7)
     f50:	58000000 	blezl	zero,f54 <ABIFlags_flags2+0xf40>
     f54:	0004900b 	movn	s2,zero,a0
     f58:	e3e20400 	sc	v0,1024(ra)
     f5c:	5c000000 	bgtzl	zero,f60 <ABIFlags_flags2+0xf4c>
     f60:	0003f30b 	0x3f30b
     f64:	27e30400 	addiu	v1,ra,1024
     f68:	64000000 	0x64000000
     f6c:	00271300 	0x271300
     f70:	04060000 	0x4060000
     f74:	06140000 	0x6140000
     f78:	14000004 	bnez	zero,f8c <ABIFlags_flags2+0xf78>
     f7c:	000000f9 	0xf9
     f80:	00053e14 	0x53e14
     f84:	00271400 	0x271400
     f88:	0f000000 	jal	c000000 <__memory_size+0xbfe0800>
     f8c:	00040c04 	0x40c04
     f90:	04dd1500 	0x4dd1500
     f94:	04280000 	tgei	at,0
     f98:	3e023904 	0x3e023904
     f9c:	16000005 	bnez	s0,fb4 <ABIFlags_flags2+0xfa0>
     fa0:	00000a11 	0xa11
     fa4:	27023b04 	addiu	v0,t8,15108
     fa8:	00000000 	nop
     fac:	0002de16 	0x2de16
     fb0:	02400400 	0x2400400
     fb4:	00000625 	0x625
     fb8:	039f1604 	0x39f1604
     fbc:	40040000 	mfc0	a0,c0_index
     fc0:	00062502 	srl	a0,a2,0x14
     fc4:	64160800 	0x64160800
     fc8:	04000003 	bltz	zero,fd8 <ABIFlags_flags2+0xfc4>
     fcc:	06250240 	0x6250240
     fd0:	160c0000 	bne	s0,t4,fd4 <ABIFlags_flags2+0xfc0>
     fd4:	000004b1 	tgeu	zero,zero,0x12
     fd8:	27024204 	addiu	v0,t8,16900
     fdc:	10000000 	b	fe0 <ABIFlags_flags2+0xfcc>
     fe0:	00023c16 	0x23c16
     fe4:	02430400 	0x2430400
     fe8:	00000807 	srav	at,zero,zero
     fec:	05641614 	0x5641614
     ff0:	45040000 	bc1f	$fcc1,ff4 <ABIFlags_flags2+0xfe0>
     ff4:	00002702 	srl	a0,zero,0x1c
     ff8:	bb163000 	swr	s6,12288(t8)
     ffc:	04000004 	bltz	zero,1010 <ABIFlags_flags2+0xffc>
    1000:	056f0246 	0x56f0246
    1004:	16340000 	bne	s1,s4,1008 <ABIFlags_flags2+0xff4>
    1008:	00000412 	0x412
    100c:	27024804 	addiu	v0,t8,18436
    1010:	38000000 	xori	zero,zero,0x0
    1014:	0004cb16 	0x4cb16
    1018:	024a0400 	0x24a0400
    101c:	00000822 	neg	at,zero
    1020:	03de163c 	0x3de163c
    1024:	4d040000 	lwxc1	$f0,a0(t0)
    1028:	00015902 	srl	t3,at,0x4
    102c:	89164000 	lwl	s6,16384(t0)
    1030:	04000003 	bltz	zero,1040 <ABIFlags_flags2+0x102c>
    1034:	0027024e 	0x27024e
    1038:	16440000 	bne	s2,a0,103c <ABIFlags_flags2+0x1028>
    103c:	000005f7 	0x5f7
    1040:	59024f04 	0x59024f04
    1044:	48000001 	mfc2	zero,$0,1
    1048:	00043516 	0x43516
    104c:	02500400 	0x2500400
    1050:	00000828 	0x828
    1054:	03a7164c 	syscall	0xe9c59
    1058:	53040000 	beql	t8,a0,105c <ABIFlags_flags2+0x1048>
    105c:	00002702 	srl	a0,zero,0x1c
    1060:	ee165000 	swc3	$22,20480(s0)
    1064:	04000002 	bltz	zero,1070 <ABIFlags_flags2+0x105c>
    1068:	053e0254 	0x53e0254
    106c:	16540000 	bne	s2,s4,1070 <ABIFlags_flags2+0x105c>
    1070:	00000451 	0x451
    1074:	e5027704 	swc1	$f2,30468(t0)
    1078:	58000007 	blezl	zero,1098 <ABIFlags_flags2+0x1084>
    107c:	00020f17 	0x20f17
    1080:	027b0400 	0x27b0400
    1084:	00000276 	tne	zero,zero,0x9
    1088:	bc170148 	cache	0x17,328(zero)
    108c:	04000003 	bltz	zero,109c <ABIFlags_flags2+0x1088>
    1090:	0238027c 	0x238027c
    1094:	014c0000 	0x14c0000
    1098:	0005ab17 	0x5ab17
    109c:	02800400 	0x2800400
    10a0:	00000839 	0x839
    10a4:	c71702dc 	lwc1	$f23,732(t8)
    10a8:	04000002 	bltz	zero,10b4 <ABIFlags_flags2+0x10a0>
    10ac:	05ea0285 	tlti	t7,645
    10b0:	02e00000 	0x2e00000
    10b4:	0002ac17 	0x2ac17
    10b8:	02860400 	0x2860400
    10bc:	00000845 	lsa	at,zero,zero,0x2
    10c0:	0f0002ec 	jal	c000bb0 <__memory_size+0xbfe13b0>
    10c4:	00054404 	0x54404
    10c8:	08010200 	j	40800 <__memory_size+0x21000>
    10cc:	000001d3 	0x1d3
    10d0:	03e8040f 	0x3e8040f
    10d4:	27130000 	addiu	s3,t8,0
    10d8:	6f000000 	0x6f000000
    10dc:	14000005 	bnez	zero,10f4 <ABIFlags_flags2+0x10e0>
    10e0:	00000406 	0x406
    10e4:	0000f914 	0xf914
    10e8:	056f1400 	0x56f1400
    10ec:	27140000 	addiu	s4,t8,0
    10f0:	00000000 	nop
    10f4:	0575040f 	0x575040f
    10f8:	44180000 	mfc1	t8,$f0
    10fc:	0f000005 	jal	c000014 <__memory_size+0xbfe0814>
    1100:	00055104 	0x55104
    1104:	006e1300 	0x6e1300
    1108:	059e0000 	0x59e0000
    110c:	06140000 	0x6140000
    1110:	14000004 	bnez	zero,1124 <ABIFlags_flags2+0x1110>
    1114:	000000f9 	0xf9
    1118:	00006e14 	0x6e14
    111c:	00271400 	0x271400
    1120:	0f000000 	jal	c000000 <__memory_size+0xbfe0800>
    1124:	00058004 	sllv	s0,a1,zero
    1128:	00271300 	0x271300
    112c:	05b80000 	0x5b80000
    1130:	06140000 	0x6140000
    1134:	14000004 	bnez	zero,1148 <ABIFlags_flags2+0x1134>
    1138:	000000f9 	0xf9
    113c:	a4040f00 	sh	a0,3840(zero)
    1140:	08000005 	j	14 <ABIFlags_flags2>
    1144:	00000035 	0x35
    1148:	000005ce 	0x5ce
    114c:	0000bb09 	0xbb09
    1150:	08000200 	j	800 <ABIFlags_flags2+0x7ec>
    1154:	00000035 	0x35
    1158:	000005de 	0x5de
    115c:	0000bb09 	0xbb09
    1160:	05000000 	bltz	t0,1164 <ABIFlags_flags2+0x1150>
    1164:	00000476 	tne	zero,zero,0x11
    1168:	be011d04 	cache	0x1,7428(s0)
    116c:	19000002 	blez	t0,1178 <ABIFlags_flags2+0x1164>
    1170:	00000592 	0x592
    1174:	0121040c 	syscall	0x48410
    1178:	0000061f 	0x61f
    117c:	00049e16 	0x49e16
    1180:	01230400 	0x1230400
    1184:	0000061f 	0x61f
    1188:	03b51600 	0x3b51600
    118c:	24040000 	li	a0,0
    1190:	00002701 	0x2701
    1194:	70160400 	0x70160400
    1198:	04000004 	bltz	zero,11ac <ABIFlags_flags2+0x1198>
    119c:	06250125 	0x6250125
    11a0:	00080000 	sll	zero,t0,0x0
    11a4:	05ea040f 	tlti	t7,1039
    11a8:	040f0000 	0x40f0000
    11ac:	000005de 	0x5de
    11b0:	00023419 	0x23419
    11b4:	3d040e00 	0x3d040e00
    11b8:	00066001 	0x66001
    11bc:	04e41600 	0x4e41600
    11c0:	3e040000 	0x3e040000
    11c4:	00066001 	0x66001
    11c8:	1b160000 	0x1b160000
    11cc:	04000005 	bltz	zero,11e4 <ABIFlags_flags2+0x11d0>
    11d0:	0660013f 	bltz	s3,16d0 <ABIFlags_flags2+0x16bc>
    11d4:	16060000 	bne	s0,a2,11d8 <ABIFlags_flags2+0x11c4>
    11d8:	00000537 	0x537
    11dc:	43014004 	c0	0x1014004
    11e0:	0c000000 	jal	0 <hardware_exit_hook>
    11e4:	00430800 	0x430800
    11e8:	06700000 	bltzal	s3,11ec <ABIFlags_flags2+0x11d8>
    11ec:	bb090000 	swr	t1,0(t8)
    11f0:	02000000 	0x2000000
    11f4:	04d01a00 	bltzal	a2,79f8 <ABIFlags_flags2+0x79e4>
    11f8:	07710258 	bgezal	k1,1b5c <ABIFlags_flags2+0x1b48>
    11fc:	76160000 	jalx	8580000 <__memory_size+0x8560800>
    1200:	04000005 	bltz	zero,1218 <ABIFlags_flags2+0x1204>
    1204:	0085025a 	0x85025a
    1208:	16000000 	bnez	s0,120c <ABIFlags_flags2+0x11f8>
    120c:	00000521 	0x521
    1210:	3e025b04 	0x3e025b04
    1214:	04000005 	bltz	zero,122c <ABIFlags_flags2+0x1218>
    1218:	0003d116 	0x3d116
    121c:	025c0400 	0x25c0400
    1220:	00000771 	tgeu	zero,zero,0x1d
    1224:	05ce1608 	tnei	t6,5640
    1228:	5d040000 	0x5d040000
    122c:	00016f02 	srl	t5,at,0x1c
    1230:	74162400 	jalx	589000 <__memory_size+0x569800>
    1234:	04000003 	bltz	zero,1244 <ABIFlags_flags2+0x1230>
    1238:	0027025e 	0x27025e
    123c:	16480000 	bne	s2,t0,1240 <ABIFlags_flags2+0x122c>
    1240:	00000499 	0x499
    1244:	51025f04 	beql	t0,v0,18e58 <ABIFlags_flags2+0x18e44>
    1248:	50000000 	beqzl	zero,124c <ABIFlags_flags2+0x1238>
    124c:	0005e416 	0x5e416
    1250:	02600400 	0x2600400
    1254:	0000062b 	0x62b
    1258:	04a41658 	0x4a41658
    125c:	61040000 	0x61040000
    1260:	0000e302 	srl	gp,zero,0xc
    1264:	e9166800 	swc2	$22,26624(t0)
    1268:	04000005 	bltz	zero,1280 <ABIFlags_flags2+0x126c>
    126c:	00e30262 	0xe30262
    1270:	16700000 	bne	s3,s0,1274 <ABIFlags_flags2+0x1260>
    1274:	0000027f 	0x27f
    1278:	e3026304 	sc	v0,25348(t8)
    127c:	78000000 	andi.b	$w0,$w0,0x0
    1280:	0005a116 	0x5a116
    1284:	02640400 	0x2640400
    1288:	00000781 	0x781
    128c:	03c51680 	0x3c51680
    1290:	65040000 	0x65040000
    1294:	00079102 	srl	s2,a3,0x4
    1298:	44168800 	mfc1	s6,$f17
    129c:	04000005 	bltz	zero,12b4 <ABIFlags_flags2+0x12a0>
    12a0:	00270266 	0x270266
    12a4:	16a00000 	bnez	s5,12a8 <ABIFlags_flags2+0x1294>
    12a8:	0000030f 	sync	0xc
    12ac:	e3026704 	sc	v0,26372(t8)
    12b0:	a4000000 	sh	zero,0(zero)
    12b4:	00027016 	0x27016
    12b8:	02680400 	0x2680400
    12bc:	000000e3 	0xe3
    12c0:	02fe16ac 	0x2fe16ac
    12c4:	69040000 	0x69040000
    12c8:	0000e302 	srl	gp,zero,0xc
    12cc:	4716b400 	bz.b	$w22,fffee2d0 <__flash_start+0x403ee2d0>
    12d0:	04000002 	bltz	zero,12dc <ABIFlags_flags2+0x12c8>
    12d4:	00e3026a 	0xe3026a
    12d8:	16bc0000 	bne	s5,gp,12dc <ABIFlags_flags2+0x12c8>
    12dc:	00000256 	0x256
    12e0:	e3026b04 	sc	v0,27396(t8)
    12e4:	c4000000 	lwc1	$f0,0(zero)
    12e8:	00045616 	0x45616
    12ec:	026c0400 	0x26c0400
    12f0:	00000027 	nor	zero,zero,zero
    12f4:	440800cc 	0x440800cc
    12f8:	81000005 	lb	zero,5(t0)
    12fc:	09000007 	j	400001c <__memory_size+0x3fe081c>
    1300:	000000bb 	0xbb
    1304:	44080019 	0x44080019
    1308:	91000005 	lbu	zero,5(t0)
    130c:	09000007 	j	400001c <__memory_size+0x3fe081c>
    1310:	000000bb 	0xbb
    1314:	44080007 	0x44080007
    1318:	a1000005 	sb	zero,5(t0)
    131c:	09000007 	j	400001c <__memory_size+0x3fe081c>
    1320:	000000bb 	0xbb
    1324:	f01a0017 	0xf01a0017
    1328:	c5027104 	lwc1	$f2,28932(t0)
    132c:	16000007 	bnez	s0,134c <ABIFlags_flags2+0x1338>
    1330:	00000402 	srl	zero,zero,0x10
    1334:	c5027404 	lwc1	$f2,29700(t0)
    1338:	00000007 	srav	zero,zero,zero
    133c:	00059816 	0x59816
    1340:	02750400 	0x2750400
    1344:	000007d5 	0x7d5
    1348:	b8080078 	swr	t0,120(zero)
    134c:	d5000002 	ldc1	$f0,2(t0)
    1350:	09000007 	j	400001c <__memory_size+0x3fe081c>
    1354:	000000bb 	0xbb
    1358:	8508001d 	lh	t0,29(t0)
    135c:	e5000000 	swc1	$f0,0(t0)
    1360:	09000007 	j	400001c <__memory_size+0x3fe081c>
    1364:	000000bb 	0xbb
    1368:	f01b001d 	0xf01b001d
    136c:	07025604 	bltzl	t8,16b80 <ABIFlags_flags2+0x16b6c>
    1370:	1c000008 	bgtz	zero,1394 <ABIFlags_flags2+0x1380>
    1374:	000004dd 	0x4dd
    1378:	70026d04 	0x70026d04
    137c:	1c000006 	bgtz	zero,1398 <ABIFlags_flags2+0x1384>
    1380:	000005bb 	0x5bb
    1384:	a1027604 	sb	v0,30212(t0)
    1388:	00000007 	srav	zero,zero,zero
    138c:	00054408 	0x54408
    1390:	00081700 	sll	v0,t0,0x1c
    1394:	00bb0900 	0xbb0900
    1398:	00180000 	sll	zero,t8,0x0
    139c:	0008221d 	0x8221d
    13a0:	04061400 	0x4061400
    13a4:	0f000000 	jal	c000000 <__memory_size+0xbfe0800>
    13a8:	00081704 	0x81704
    13ac:	59040f00 	0x59040f00
    13b0:	1d000001 	bgtz	t0,13b8 <ABIFlags_flags2+0x13a4>
    13b4:	00000839 	0x839
    13b8:	00002714 	0x2714
    13bc:	040f0000 	0x40f0000
    13c0:	0000083f 	0x83f
    13c4:	082e040f 	j	b8103c <__memory_size+0xb6183c>
    13c8:	de080000 	ldc3	$8,0(s0)
    13cc:	55000005 	bnezl	t0,13e4 <ABIFlags_flags2+0x13d0>
    13d0:	09000008 	j	4000020 <__memory_size+0x3fe0820>
    13d4:	000000bb 	0xbb
    13d8:	061e0002 	0x61e0002
    13dc:	05000006 	bltz	t0,13f8 <ABIFlags_flags2+0x13e4>
    13e0:	00040c17 	0x40c17
    13e4:	58030500 	0x58030500
    13e8:	1f80001b 	bgtz	gp,1458 <ABIFlags_flags2+0x1444>
    13ec:	00000558 	0x558
    13f0:	0602fa04 	bltzl	s0,fffffc04 <__flash_start+0x403ffc04>
    13f4:	05000004 	bltz	t0,1408 <ABIFlags_flags2+0x13f4>
    13f8:	001fd003 	sra	k0,ra,0x0
    13fc:	05511f80 	bgezal	t2,9200 <ABIFlags_flags2+0x91ec>
    1400:	fb040000 	sdc2	$4,0(t8)
    1404:	00088a02 	srl	s1,t0,0x8
    1408:	cc030500 	pref	0x3,1280(zero)
    140c:	1880001f 	blez	a0,148c <ABIFlags_flags2+0x1478>
    1410:	00000406 	0x406
    1414:	00092c00 	sll	a1,t1,0x10
    1418:	c5000400 	lwc1	$f0,1024(t0)
    141c:	04000004 	bltz	zero,1430 <ABIFlags_flags2+0x141c>
    1420:	00012201 	0x12201
    1424:	064d0100 	0x64d0100
    1428:	07a00000 	bltz	sp,142c <ABIFlags_flags2+0x1418>
    142c:	01088000 	0x1088000
    1430:	056d0000 	0x56d0000
    1434:	04020000 	bltzl	zero,1438 <ABIFlags_flags2+0x1424>
    1438:	0000ab05 	0xab05
    143c:	06460300 	0x6460300
    1440:	d4020000 	ldc1	$f2,0(zero)
    1444:	00000033 	tltu	zero,zero
    1448:	10070402 	beq	zero,a3,2454 <ABIFlags_flags2+0x2440>
    144c:	04000001 	bltz	zero,1454 <ABIFlags_flags2+0x1440>
    1450:	6e690504 	0x6e690504
    1454:	01020074 	teq	t0,v0,0x1
    1458:	0001cc06 	0x1cc06
    145c:	08010200 	j	40800 <__memory_size+0x21000>
    1460:	000001ca 	0x1ca
    1464:	01050202 	0x1050202
    1468:	02000002 	0x2000002
    146c:	00b40702 	0xb40702
    1470:	08020000 	j	80000 <__memory_size+0x60800>
    1474:	0000a605 	0xa605
    1478:	07080200 	tgei	t8,512
    147c:	0000010b 	0x10b
    1480:	00043f03 	sra	a3,a0,0x1c
    1484:	3a070300 	xori	a3,s0,0x300
    1488:	03000000 	0x3000000
    148c:	0000041d 	0x41d
    1490:	00211004 	sllv	v0,at,at
    1494:	00030000 	sll	zero,v1,0x0
    1498:	04000005 	bltz	zero,14b0 <ABIFlags_flags2+0x149c>
    149c:	00002127 	0x2127
    14a0:	03ec0500 	0x3ec0500
    14a4:	61020000 	0x61020000
    14a8:	00009801 	movf	s3,zero,$fcc0
    14ac:	07040200 	0x7040200
    14b0:	00000115 	0x115
    14b4:	4a040406 	c2	0x40406
    14b8:	000000be 	0xbe
    14bc:	0003e607 	0x3e607
    14c0:	8c4c0400 	lw	t4,1024(v0)
    14c4:	07000000 	bltz	t8,14c8 <ABIFlags_flags2+0x14b4>
    14c8:	00000398 	0x398
    14cc:	00be4d04 	0xbe4d04
    14d0:	08000000 	j	0 <hardware_exit_hook>
    14d4:	00000048 	0x48
    14d8:	000000ce 	0xce
    14dc:	0000ce09 	0xce09
    14e0:	02000300 	0x2000300
    14e4:	02170704 	0x2170704
    14e8:	080a0000 	j	280000 <__memory_size+0x260800>
    14ec:	00f64704 	0xf64704
    14f0:	ea0b0000 	swc2	$11,0(s0)
    14f4:	04000004 	bltz	zero,1508 <ABIFlags_flags2+0x14f4>
    14f8:	00003a49 	0x3a49
    14fc:	f20b0000 	0xf20b0000
    1500:	04000004 	bltz	zero,1514 <ABIFlags_flags2+0x1500>
    1504:	00009f4e 	0x9f4e
    1508:	03000400 	0x3000400
    150c:	0000047d 	0x47d
    1510:	00d54f04 	0xd54f04
    1514:	5b030000 	0x5b030000
    1518:	04000003 	bltz	zero,1528 <ABIFlags_flags2+0x1514>
    151c:	00006b53 	0x6b53
    1520:	03040c00 	0x3040c00
    1524:	0000053c 	0x53c
    1528:	00331605 	0x331605
    152c:	6c0d0000 	0x6c0d0000
    1530:	18000003 	blez	zero,1540 <ABIFlags_flags2+0x152c>
    1534:	016c2d05 	0x16c2d05
    1538:	9e0b0000 	0x9e0b0000
    153c:	05000004 	bltz	t0,1550 <ABIFlags_flags2+0x153c>
    1540:	00016c2f 	0x16c2f
    1544:	5f0e0000 	0x5f0e0000
    1548:	3005006b 	andi	a1,zero,0x6b
    154c:	0000003a 	0x3a
    1550:	04d50b04 	0x4d50b04
    1554:	30050000 	andi	a1,zero,0x0
    1558:	0000003a 	0x3a
    155c:	03550b08 	0x3550b08
    1560:	30050000 	andi	a1,zero,0x0
    1564:	0000003a 	0x3a
    1568:	05830b0c 	bgezl	t4,419c <ABIFlags_flags2+0x4188>
    156c:	30050000 	andi	a1,zero,0x0
    1570:	0000003a 	0x3a
    1574:	785f0e10 	add_a.w	$w24,$w1,$w31
    1578:	72310500 	0x72310500
    157c:	14000001 	bnez	zero,1584 <ABIFlags_flags2+0x1570>
    1580:	19040f00 	0x19040f00
    1584:	08000001 	j	4 <ABIFlags_gpr_size>
    1588:	0000010e 	0x10e
    158c:	00000182 	srl	zero,zero,0x6
    1590:	0000ce09 	0xce09
    1594:	0d000000 	jal	4000000 <__memory_size+0x3fe0800>
    1598:	00000393 	0x393
    159c:	fb350524 	sdc2	$21,1316(t9)
    15a0:	0b000001 	j	c000004 <__memory_size+0xbfe0804>
    15a4:	0000028d 	break	0x0,0xa
    15a8:	003a3705 	0x3a3705
    15ac:	0b000000 	j	c000000 <__memory_size+0xbfe0800>
    15b0:	00000512 	0x512
    15b4:	003a3805 	lsa	a3,at,k0,0x1
    15b8:	0b040000 	j	c100000 <__memory_size+0xc0e0800>
    15bc:	000002a2 	0x2a2
    15c0:	003a3905 	0x3a3905
    15c4:	0b080000 	j	c200000 <__memory_size+0xc1e0800>
    15c8:	000005fc 	0x5fc
    15cc:	003a3a05 	0x3a3a05
    15d0:	0b0c0000 	j	c300000 <__memory_size+0xc2e0800>
    15d4:	00000409 	jalr.hb	zero,zero
    15d8:	003a3b05 	0x3a3b05
    15dc:	0b100000 	j	c400000 <__memory_size+0xc3e0800>
    15e0:	00000508 	0x508
    15e4:	003a3c05 	0x3a3c05
    15e8:	0b140000 	j	c500000 <__memory_size+0xc4e0800>
    15ec:	00000588 	0x588
    15f0:	003a3d05 	0x3a3d05
    15f4:	0b180000 	j	c600000 <__memory_size+0xc5e0800>
    15f8:	0000045f 	0x45f
    15fc:	003a3e05 	0x3a3e05
    1600:	0b1c0000 	j	c700000 <__memory_size+0xc6e0800>
    1604:	000005c3 	sra	zero,zero,0x17
    1608:	003a3f05 	0x3a3f05
    160c:	00200000 	0x200000
    1610:	0002b110 	0x2b110
    1614:	05010800 	bgez	t0,3618 <ABIFlags_flags2+0x3604>
    1618:	00023b48 	0x23b48
    161c:	022c0b00 	0x22c0b00
    1620:	49050000 	bc2t	$cc1,1624 <ABIFlags_flags2+0x1610>
    1624:	0000023b 	0x23b
    1628:	02200b00 	0x2200b00
    162c:	4a050000 	c2	0x50000
    1630:	0000023b 	0x23b
    1634:	052e1180 	tnei	t1,4480
    1638:	4c050000 	lwxc1	$f0,a1(zero)
    163c:	0000010e 	0x10e
    1640:	d6110100 	ldc1	$f17,256(s0)
    1644:	05000002 	bltz	t0,1650 <ABIFlags_flags2+0x163c>
    1648:	00010e4f 	0x10e4f
    164c:	00010400 	sll	zero,at,0x10
    1650:	00010c08 	0x10c08
    1654:	00024b00 	sll	t1,v0,0xc
    1658:	00ce0900 	0xce0900
    165c:	001f0000 	sll	zero,ra,0x0
    1660:	00020f10 	0x20f10
    1664:	05019000 	bgez	t0,fffe5668 <__flash_start+0x403e5668>
    1668:	0002895b 	0x2895b
    166c:	049e0b00 	0x49e0b00
    1670:	5c050000 	0x5c050000
    1674:	00000289 	0x289
    1678:	04b60b00 	0x4b60b00
    167c:	5d050000 	0x5d050000
    1680:	0000003a 	0x3a
    1684:	03500b04 	0x3500b04
    1688:	5f050000 	0x5f050000
    168c:	0000028f 	sync	0xa
    1690:	02b10b08 	0x2b10b08
    1694:	60050000 	0x60050000
    1698:	000001fb 	0x1fb
    169c:	040f0088 	0x40f0088
    16a0:	0000024b 	0x24b
    16a4:	00029f08 	0x29f08
    16a8:	00029f00 	sll	s3,v0,0x1c
    16ac:	00ce0900 	0xce0900
    16b0:	001f0000 	sll	zero,ra,0x0
    16b4:	02a5040f 	0x2a5040f
    16b8:	0d120000 	jal	4480000 <__memory_size+0x4460800>
    16bc:	00000469 	0x469
    16c0:	cb730508 	lwc2	$19,1288(k1)
    16c4:	0b000002 	j	c000008 <__memory_size+0xbfe0808>
    16c8:	0000029c 	0x29c
    16cc:	02cb7405 	0x2cb7405
    16d0:	0b000000 	j	c000000 <__memory_size+0xbfe0800>
    16d4:	0000087d 	0x87d
    16d8:	003a7505 	0x3a7505
    16dc:	00040000 	sll	zero,a0,0x0
    16e0:	0048040f 	0x48040f
    16e4:	880d0000 	lwl	t5,0(zero)
    16e8:	68000004 	0x68000004
    16ec:	03fbb305 	0x3fbb305
    16f0:	5f0e0000 	0x5f0e0000
    16f4:	b4050070 	0xb4050070
    16f8:	000002cb 	0x2cb
    16fc:	725f0e00 	0x725f0e00
    1700:	3ab50500 	xori	s5,s5,0x500
    1704:	04000000 	bltz	zero,1708 <ABIFlags_flags2+0x16f4>
    1708:	00775f0e 	0x775f0e
    170c:	003ab605 	0x3ab605
    1710:	0b080000 	j	c200000 <__memory_size+0xc1e0800>
    1714:	000002cf 	sync	0xb
    1718:	004fb705 	0x4fb705
    171c:	0b0c0000 	j	c300000 <__memory_size+0xc2e0800>
    1720:	000003af 	0x3af
    1724:	004fb805 	lsa	s7,v0,t7,0x1
    1728:	0e0e0000 	jal	8380000 <__memory_size+0x8360800>
    172c:	0066625f 	0x66625f
    1730:	02a6b905 	0x2a6b905
    1734:	0b100000 	j	c400000 <__memory_size+0xc3e0800>
    1738:	00000267 	0x267
    173c:	003aba05 	0x3aba05
    1740:	0b180000 	j	c600000 <__memory_size+0xc5e0800>
    1744:	000002bf 	0x2bf
    1748:	010cc105 	0x10cc105
    174c:	0b1c0000 	j	c700000 <__memory_size+0xc6e0800>
    1750:	00000383 	sra	zero,zero,0xe
    1754:	055ec305 	0x55ec305
    1758:	0b200000 	j	c800000 <__memory_size+0xc7e0800>
    175c:	000003fb 	0x3fb
    1760:	058dc505 	0x58dc505
    1764:	0b240000 	j	c900000 <__memory_size+0xc8e0800>
    1768:	000004fa 	0x4fa
    176c:	05b1c805 	bgezal	t5,ffff3784 <__flash_start+0x403f3784>
    1770:	0b280000 	j	ca00000 <__memory_size+0xc9e0800>
    1774:	000005dd 	0x5dd
    1778:	05cbc905 	tltiu	t6,-14075
    177c:	0e2c0000 	jal	8b00000 <__memory_size+0x8ae0800>
    1780:	0062755f 	0x62755f
    1784:	02a6cc05 	0x2a6cc05
    1788:	0e300000 	jal	8c00000 <__memory_size+0x8be0800>
    178c:	0070755f 	0x70755f
    1790:	02cbcd05 	0x2cbcd05
    1794:	0e380000 	jal	8e00000 <__memory_size+0x8de0800>
    1798:	0072755f 	0x72755f
    179c:	003ace05 	0x3ace05
    17a0:	0b3c0000 	j	cf00000 <__memory_size+0xcee0800>
    17a4:	00000296 	0x296
    17a8:	05d1d105 	bgezal	t6,ffff5bc0 <__flash_start+0x403f5bc0>
    17ac:	0b400000 	j	d000000 <__memory_size+0xcfe0800>
    17b0:	000005b5 	0x5b5
    17b4:	05e1d205 	bgez	t7,ffff5fcc <__flash_start+0x403f5fcc>
    17b8:	0e430000 	jal	90c0000 <__memory_size+0x90a0800>
    17bc:	00626c5f 	0x626c5f
    17c0:	02a6d505 	0x2a6d505
    17c4:	0b440000 	j	d100000 <__memory_size+0xd0e0800>
    17c8:	000002e5 	0x2e5
    17cc:	003ad805 	lsa	k1,at,k0,0x1
    17d0:	0b4c0000 	j	d300000 <__memory_size+0xd2e0800>
    17d4:	000002f6 	tne	zero,zero,0xb
    17d8:	0076d905 	0x76d905
    17dc:	0b500000 	j	d400000 <__memory_size+0xd3e0800>
    17e0:	0000060c 	syscall	0x18
    17e4:	0419dc05 	0x419dc05
    17e8:	0b540000 	j	d500000 <__memory_size+0xd4e0800>
    17ec:	000006db 	0x6db
    17f0:	0101e005 	lsa	gp,t0,at,0x1
    17f4:	0b580000 	j	d600000 <__memory_size+0xd5e0800>
    17f8:	00000490 	0x490
    17fc:	00f6e205 	0xf6e205
    1800:	0b5c0000 	j	d700000 <__memory_size+0xd6e0800>
    1804:	000003f3 	tltu	zero,zero,0xf
    1808:	003ae305 	0x3ae305
    180c:	00640000 	0x640000
    1810:	00003a13 	0x3a13
    1814:	00041900 	sll	v1,a0,0x4
    1818:	04191400 	0x4191400
    181c:	0c140000 	jal	500000 <__memory_size+0x4e0800>
    1820:	14000001 	bnez	zero,1828 <ABIFlags_flags2+0x1814>
    1824:	00000551 	0x551
    1828:	00003a14 	0x3a14
    182c:	040f0000 	0x40f0000
    1830:	0000041f 	0x41f
    1834:	0004dd15 	0x4dd15
    1838:	05042800 	0x5042800
    183c:	05510239 	bgezal	t2,2124 <ABIFlags_flags2+0x2110>
    1840:	11160000 	beq	t0,s6,1844 <ABIFlags_flags2+0x1830>
    1844:	0500000a 	bltz	t0,1870 <ABIFlags_flags2+0x185c>
    1848:	003a023b 	0x3a023b
    184c:	16000000 	bnez	s0,1850 <ABIFlags_flags2+0x183c>
    1850:	000002de 	0x2de
    1854:	38024005 	xori	v0,zero,0x4005
    1858:	04000006 	bltz	zero,1874 <ABIFlags_flags2+0x1860>
    185c:	00039f16 	0x39f16
    1860:	02400500 	0x2400500
    1864:	00000638 	0x638
    1868:	03641608 	0x3641608
    186c:	40050000 	mfc0	a1,c0_index
    1870:	00063802 	srl	a3,a2,0x0
    1874:	b1160c00 	0xb1160c00
    1878:	05000004 	bltz	t0,188c <ABIFlags_flags2+0x1878>
    187c:	003a0242 	ror	zero,k0,0x9
    1880:	16100000 	bne	s0,s0,1884 <ABIFlags_flags2+0x1870>
    1884:	0000023c 	0x23c
    1888:	1a024305 	0x1a024305
    188c:	14000008 	bnez	zero,18b0 <ABIFlags_flags2+0x189c>
    1890:	00056416 	0x56416
    1894:	02450500 	0x2450500
    1898:	0000003a 	0x3a
    189c:	04bb1630 	0x4bb1630
    18a0:	46050000 	add.s	$f0,$f0,$f5
    18a4:	00058202 	srl	s0,a1,0x8
    18a8:	12163400 	beq	s0,s6,e8ac <ABIFlags_flags2+0xe898>
    18ac:	05000004 	bltz	t0,18c0 <ABIFlags_flags2+0x18ac>
    18b0:	003a0248 	0x3a0248
    18b4:	16380000 	bne	s1,t8,18b8 <ABIFlags_flags2+0x18a4>
    18b8:	000004cb 	0x4cb
    18bc:	35024a05 	ori	v0,t0,0x4a05
    18c0:	3c000008 	lui	zero,0x8
    18c4:	0003de16 	0x3de16
    18c8:	024d0500 	0x24d0500
    18cc:	0000016c 	0x16c
    18d0:	03891640 	0x3891640
    18d4:	4e050000 	lwxc1	$f0,a1(s0)
    18d8:	00003a02 	srl	a3,zero,0x8
    18dc:	f7164400 	sdc1	$f22,17408(t8)
    18e0:	05000005 	bltz	t0,18f8 <ABIFlags_flags2+0x18e4>
    18e4:	016c024f 	0x16c024f
    18e8:	16480000 	bne	s2,t0,18ec <ABIFlags_flags2+0x18d8>
    18ec:	00000435 	0x435
    18f0:	3b025005 	xori	v0,t8,0x5005
    18f4:	4c000008 	swxc1	$f0,zero(zero)
    18f8:	0003a716 	0x3a716
    18fc:	02530500 	0x2530500
    1900:	0000003a 	0x3a
    1904:	02ee1650 	0x2ee1650
    1908:	54050000 	bnel	zero,a1,190c <ABIFlags_flags2+0x18f8>
    190c:	00055102 	srl	t2,a1,0x4
    1910:	51165400 	beql	t0,s6,16914 <ABIFlags_flags2+0x16900>
    1914:	05000004 	bltz	t0,1928 <ABIFlags_flags2+0x1914>
    1918:	07f80277 	0x7f80277
    191c:	17580000 	bne	k0,t8,1920 <ABIFlags_flags2+0x190c>
    1920:	0000020f 	sync	0x8
    1924:	89027b05 	lwl	v0,31493(t0)
    1928:	48000002 	mfc2	zero,$0,2
    192c:	03bc1701 	0x3bc1701
    1930:	7c050000 	ext	a1,zero,0x0,0x1
    1934:	00024b02 	srl	t1,v0,0xc
    1938:	17014c00 	bne	t8,at,1493c <ABIFlags_flags2+0x14928>
    193c:	000005ab 	0x5ab
    1940:	4c028005 	mfc3	v0,$16,5
    1944:	dc000008 	ldc3	$0,8(zero)
    1948:	02c71702 	0x2c71702
    194c:	85050000 	lh	a1,0(t0)
    1950:	0005fd02 	srl	ra,a1,0x14
    1954:	1702e000 	bne	t8,v0,ffff9958 <__flash_start+0x403f9958>
    1958:	000002ac 	0x2ac
    195c:	58028605 	0x58028605
    1960:	ec000008 	swc3	$0,8(zero)
    1964:	040f0002 	0x40f0002
    1968:	00000557 	0x557
    196c:	d3080102 	0xd3080102
    1970:	0f000001 	jal	c000004 <__memory_size+0xbfe0804>
    1974:	0003fb04 	0x3fb04
    1978:	003a1300 	0x3a1300
    197c:	05820000 	bltzl	t4,1980 <ABIFlags_flags2+0x196c>
    1980:	19140000 	0x19140000
    1984:	14000004 	bnez	zero,1998 <ABIFlags_flags2+0x1984>
    1988:	0000010c 	syscall	0x4
    198c:	00058214 	0x58214
    1990:	003a1400 	0x3a1400
    1994:	0f000000 	jal	c000000 <__memory_size+0xbfe0800>
    1998:	00058804 	sllv	s1,a1,zero
    199c:	05571800 	0x5571800
    19a0:	040f0000 	0x40f0000
    19a4:	00000564 	0x564
    19a8:	00008113 	0x8113
    19ac:	0005b100 	sll	s6,a1,0x4
    19b0:	04191400 	0x4191400
    19b4:	0c140000 	jal	500000 <__memory_size+0x4e0800>
    19b8:	14000001 	bnez	zero,19c0 <ABIFlags_flags2+0x19ac>
    19bc:	00000081 	0x81
    19c0:	00003a14 	0x3a14
    19c4:	040f0000 	0x40f0000
    19c8:	00000593 	0x593
    19cc:	00003a13 	0x3a13
    19d0:	0005cb00 	sll	t9,a1,0xc
    19d4:	04191400 	0x4191400
    19d8:	0c140000 	jal	500000 <__memory_size+0x4e0800>
    19dc:	00000001 	movf	zero,zero,$fcc0
    19e0:	05b7040f 	0x5b7040f
    19e4:	48080000 	mfc2	t0,$0
    19e8:	e1000000 	sc	zero,0(t0)
    19ec:	09000005 	j	4000014 <__memory_size+0x3fe0814>
    19f0:	000000ce 	0xce
    19f4:	48080002 	mfc2	t0,$0,2
    19f8:	f1000000 	0xf1000000
    19fc:	09000005 	j	4000014 <__memory_size+0x3fe0814>
    1a00:	000000ce 	0xce
    1a04:	76050000 	jalx	8140000 <__memory_size+0x8120800>
    1a08:	05000004 	bltz	t0,1a1c <ABIFlags_flags2+0x1a08>
    1a0c:	02d1011d 	0x2d1011d
    1a10:	92190000 	lbu	t9,0(s0)
    1a14:	0c000005 	jal	14 <ABIFlags_flags2>
    1a18:	32012105 	andi	at,s0,0x2105
    1a1c:	16000006 	bnez	s0,1a38 <ABIFlags_flags2+0x1a24>
    1a20:	0000049e 	0x49e
    1a24:	32012305 	andi	at,s0,0x2305
    1a28:	00000006 	srlv	zero,zero,zero
    1a2c:	0003b516 	0x3b516
    1a30:	01240500 	0x1240500
    1a34:	0000003a 	0x3a
    1a38:	04701604 	bltzal	v1,724c <ABIFlags_flags2+0x7238>
    1a3c:	25050000 	addiu	a1,t0,0
    1a40:	00063801 	0x63801
    1a44:	0f000800 	jal	c002000 <__memory_size+0xbfe2800>
    1a48:	0005fd04 	0x5fd04
    1a4c:	f1040f00 	0xf1040f00
    1a50:	19000005 	blez	t0,1a68 <ABIFlags_flags2+0x1a54>
    1a54:	00000234 	teq	zero,zero,0x8
    1a58:	013d050e 	0x13d050e
    1a5c:	00000673 	tltu	zero,zero,0x19
    1a60:	0004e416 	0x4e416
    1a64:	013e0500 	0x13e0500
    1a68:	00000673 	tltu	zero,zero,0x19
    1a6c:	051b1600 	0x51b1600
    1a70:	3f050000 	0x3f050000
    1a74:	00067301 	0x67301
    1a78:	37160600 	ori	s6,t8,0x600
    1a7c:	05000005 	bltz	t0,1a94 <ABIFlags_flags2+0x1a80>
    1a80:	00560140 	0x560140
    1a84:	000c0000 	sll	zero,t4,0x0
    1a88:	00005608 	0x5608
    1a8c:	00068300 	sll	s0,a2,0xc
    1a90:	00ce0900 	0xce0900
    1a94:	00020000 	sll	zero,v0,0x0
    1a98:	5805d01a 	0x5805d01a
    1a9c:	00078402 	srl	s0,a3,0x10
    1aa0:	05761600 	0x5761600
    1aa4:	5a050000 	0x5a050000
    1aa8:	00009802 	srl	s3,zero,0x0
    1aac:	21160000 	addi	s6,t0,0
    1ab0:	05000005 	bltz	t0,1ac8 <ABIFlags_flags2+0x1ab4>
    1ab4:	0551025b 	bgezal	t2,2424 <ABIFlags_flags2+0x2410>
    1ab8:	16040000 	bne	s0,a0,1abc <ABIFlags_flags2+0x1aa8>
    1abc:	000003d1 	0x3d1
    1ac0:	84025c05 	lh	v0,23557(zero)
    1ac4:	08000007 	j	1c <ABIFlags_flags2+0x8>
    1ac8:	0005ce16 	0x5ce16
    1acc:	025d0500 	0x25d0500
    1ad0:	00000182 	srl	zero,zero,0x6
    1ad4:	03741624 	0x3741624
    1ad8:	5e050000 	0x5e050000
    1adc:	00003a02 	srl	a3,zero,0x8
    1ae0:	99164800 	lwr	s6,18432(t0)
    1ae4:	05000004 	bltz	t0,1af8 <ABIFlags_flags2+0x1ae4>
    1ae8:	0064025f 	0x64025f
    1aec:	16500000 	bne	s2,s0,1af0 <ABIFlags_flags2+0x1adc>
    1af0:	000005e4 	0x5e4
    1af4:	3e026005 	0x3e026005
    1af8:	58000006 	blezl	zero,1b14 <ABIFlags_flags2+0x1b00>
    1afc:	0004a416 	0x4a416
    1b00:	02610500 	0x2610500
    1b04:	000000f6 	tne	zero,zero,0x3
    1b08:	05e91668 	tgeiu	t7,5736
    1b0c:	62050000 	0x62050000
    1b10:	0000f602 	srl	s8,zero,0x18
    1b14:	7f167000 	ext	s6,t8,0x0,0xf
    1b18:	05000002 	bltz	t0,1b24 <ABIFlags_flags2+0x1b10>
    1b1c:	00f60263 	0xf60263
    1b20:	16780000 	bne	s3,t8,1b24 <ABIFlags_flags2+0x1b10>
    1b24:	000005a1 	0x5a1
    1b28:	94026405 	lhu	v0,25605(zero)
    1b2c:	80000007 	lb	zero,7(zero)
    1b30:	0003c516 	0x3c516
    1b34:	02650500 	0x2650500
    1b38:	000007a4 	0x7a4
    1b3c:	05441688 	0x5441688
    1b40:	66050000 	0x66050000
    1b44:	00003a02 	srl	a3,zero,0x8
    1b48:	0f16a000 	jal	c5a8000 <__memory_size+0xc588800>
    1b4c:	05000003 	bltz	t0,1b5c <ABIFlags_flags2+0x1b48>
    1b50:	00f60267 	0xf60267
    1b54:	16a40000 	bne	s5,a0,1b58 <ABIFlags_flags2+0x1b44>
    1b58:	00000270 	tge	zero,zero,0x9
    1b5c:	f6026805 	sdc1	$f2,26629(s0)
    1b60:	ac000000 	sw	zero,0(zero)
    1b64:	0002fe16 	0x2fe16
    1b68:	02690500 	0x2690500
    1b6c:	000000f6 	tne	zero,zero,0x3
    1b70:	024716b4 	teq	s2,a3,0x5a
    1b74:	6a050000 	0x6a050000
    1b78:	0000f602 	srl	s8,zero,0x18
    1b7c:	5616bc00 	bnel	s0,s6,ffff0b80 <__flash_start+0x403f0b80>
    1b80:	05000002 	bltz	t0,1b8c <ABIFlags_flags2+0x1b78>
    1b84:	00f6026b 	0xf6026b
    1b88:	16c40000 	bne	s6,a0,1b8c <ABIFlags_flags2+0x1b78>
    1b8c:	00000456 	0x456
    1b90:	3a026c05 	xori	v0,s0,0x6c05
    1b94:	cc000000 	pref	0x0,0(zero)
    1b98:	05570800 	0x5570800
    1b9c:	07940000 	0x7940000
    1ba0:	ce090000 	pref	0x9,0(s0)
    1ba4:	19000000 	blez	t0,1ba8 <ABIFlags_flags2+0x1b94>
    1ba8:	05570800 	0x5570800
    1bac:	07a40000 	0x7a40000
    1bb0:	ce090000 	pref	0x9,0(s0)
    1bb4:	07000000 	bltz	t8,1bb8 <ABIFlags_flags2+0x1ba4>
    1bb8:	05570800 	0x5570800
    1bbc:	07b40000 	0x7b40000
    1bc0:	ce090000 	pref	0x9,0(s0)
    1bc4:	17000000 	bnez	t8,1bc8 <ABIFlags_flags2+0x1bb4>
    1bc8:	05f01a00 	bltzal	t7,83cc <ABIFlags_flags2+0x83b8>
    1bcc:	07d80271 	0x7d80271
    1bd0:	02160000 	0x2160000
    1bd4:	05000004 	bltz	t0,1be8 <ABIFlags_flags2+0x1bd4>
    1bd8:	07d80274 	0x7d80274
    1bdc:	16000000 	bnez	s0,1be0 <ABIFlags_flags2+0x1bcc>
    1be0:	00000598 	0x598
    1be4:	e8027505 	swc2	$2,29957(zero)
    1be8:	78000007 	ceqi.b	$w0,$w0,0
    1bec:	02cb0800 	0x2cb0800
    1bf0:	07e80000 	tgei	ra,0
    1bf4:	ce090000 	pref	0x9,0(s0)
    1bf8:	1d000000 	bgtz	t0,1bfc <ABIFlags_flags2+0x1be8>
    1bfc:	00980800 	0x980800
    1c00:	07f80000 	0x7f80000
    1c04:	ce090000 	pref	0x9,0(s0)
    1c08:	1d000000 	bgtz	t0,1c0c <ABIFlags_flags2+0x1bf8>
    1c0c:	05f01b00 	bltzal	t7,8810 <ABIFlags_flags2+0x87fc>
    1c10:	081a0256 	j	680958 <__memory_size+0x661158>
    1c14:	dd1c0000 	ldc3	$28,0(t0)
    1c18:	05000004 	bltz	t0,1c2c <ABIFlags_flags2+0x1c18>
    1c1c:	0683026d 	bgezl	s4,25d4 <ABIFlags_flags2+0x25c0>
    1c20:	bb1c0000 	swr	gp,0(t8)
    1c24:	05000005 	bltz	t0,1c3c <ABIFlags_flags2+0x1c28>
    1c28:	07b40276 	0x7b40276
    1c2c:	08000000 	j	0 <hardware_exit_hook>
    1c30:	00000557 	0x557
    1c34:	0000082a 	slt	at,zero,zero
    1c38:	0000ce09 	0xce09
    1c3c:	1d001800 	bgtz	t0,7c40 <ABIFlags_flags2+0x7c2c>
    1c40:	00000835 	0x835
    1c44:	00041914 	0x41914
    1c48:	040f0000 	0x40f0000
    1c4c:	0000082a 	slt	at,zero,zero
    1c50:	016c040f 	0x16c040f
    1c54:	4c1d0000 	lwxc1	$f0,sp(zero)
    1c58:	14000008 	bnez	zero,1c7c <ABIFlags_flags2+0x1c68>
    1c5c:	0000003a 	0x3a
    1c60:	52040f00 	beql	s0,a0,5864 <ABIFlags_flags2+0x5850>
    1c64:	0f000008 	jal	c000020 <__memory_size+0xbfe0820>
    1c68:	00084104 	0x84104
    1c6c:	05f10800 	bgezal	t7,3c70 <ABIFlags_flags2+0x3c5c>
    1c70:	08680000 	j	1a00000 <__memory_size+0x19e0800>
    1c74:	ce090000 	pref	0x9,0(s0)
    1c78:	02000000 	0x2000000
    1c7c:	00c71e00 	0xc71e00
    1c80:	06040000 	0x6040000
    1c84:	00088705 	0x88705
    1c88:	020b1f00 	0x20b1f00
    1c8c:	1f000000 	bgtz	t8,1c90 <ABIFlags_flags2+0x1c7c>
    1c90:	000001ec 	0x1ec
    1c94:	01f81f01 	0x1f81f01
    1c98:	00020000 	sll	zero,v0,0x0
    1c9c:	0001d820 	add	k1,zero,at
    1ca0:	3a420100 	xori	v0,s2,0x100
    1ca4:	a0000000 	sb	zero,0(zero)
    1ca8:	08800007 	j	200001c <__memory_size+0x1fe081c>
    1cac:	01000001 	movf	zero,t0,$fcc0
    1cb0:	0009079c 	0x9079c
    1cb4:	021b2100 	0x21b2100
    1cb8:	42010000 	c0	0x10000
    1cbc:	0000003a 	0x3a
    1cc0:	0000004a 	0x4a
    1cc4:	006e6622 	0x6e6622
    1cc8:	029f4201 	0x29f4201
    1ccc:	00760000 	0x760000
    1cd0:	61220000 	0x61220000
    1cd4:	01006772 	tlt	t0,zero,0x19d
    1cd8:	00010c42 	srl	at,at,0x11
    1cdc:	0000ad00 	sll	s5,zero,0x14
    1ce0:	00642200 	0x642200
    1ce4:	010c4201 	0x10c4201
    1ce8:	00e40000 	0xe40000
    1cec:	ba230000 	swr	v1,0(s1)
    1cf0:	01000002 	0x1000002
    1cf4:	00090749 	0x90749
    1cf8:	00011b00 	sll	v1,at,0xc
    1cfc:	00702400 	0x702400
    1d00:	02894a01 	0x2894a01
    1d04:	01310000 	0x1310000
    1d08:	0c250000 	jal	940000 <__memory_size+0x920800>
    1d0c:	1e800008 	bgtz	s4,1d30 <ABIFlags_flags2+0x1d1c>
    1d10:	26000009 	addiu	zero,s0,9
    1d14:	0a035401 	j	80d5004 <__memory_size+0x80b5804>
    1d18:	00000190 	0x190
    1d1c:	01fb040f 	0x1fb040f
    1d20:	51270000 	beql	t1,a3,1d24 <ABIFlags_flags2+0x1d10>
    1d24:	05000005 	bltz	t0,1d3c <ABIFlags_flags2+0x1d28>
    1d28:	091902fb 	j	4640bec <__memory_size+0x46213ec>
    1d2c:	19180000 	0x19180000
    1d30:	28000004 	slti	zero,zero,4
    1d34:	0000059a 	0x59a
    1d38:	010c6007 	srav	t4,t4,t0
    1d3c:	28140000 	slti	s4,zero,0
    1d40:	00000000 	nop
    1d44:	00095100 	sll	t2,t1,0x4
    1d48:	d2000400 	0xd2000400
    1d4c:	04000006 	bltz	zero,1d68 <ABIFlags_flags2+0x1d54>
    1d50:	00012201 	0x12201
    1d54:	06970100 	0x6970100
    1d58:	08a80000 	j	2a00000 <__memory_size+0x29e0800>
    1d5c:	01808000 	0x1808000
    1d60:	06e00000 	bltz	s7,1d64 <ABIFlags_flags2+0x1d50>
    1d64:	04020000 	bltzl	zero,1d68 <ABIFlags_flags2+0x1d54>
    1d68:	00011007 	srav	v0,at,zero
    1d6c:	05040300 	0x5040300
    1d70:	00746e69 	0x746e69
    1d74:	ab050402 	swl	a1,1026(t8)
    1d78:	02000000 	0x2000000
    1d7c:	01cc0601 	0x1cc0601
    1d80:	01020000 	0x1020000
    1d84:	0001ca08 	0x1ca08
    1d88:	05020200 	bltzl	t0,258c <ABIFlags_flags2+0x2578>
    1d8c:	00000201 	0x201
    1d90:	b4070202 	0xb4070202
    1d94:	02000000 	0x2000000
    1d98:	00a60508 	0xa60508
    1d9c:	08020000 	j	80000 <__memory_size+0x60800>
    1da0:	00010b07 	0x10b07
    1da4:	043f0400 	synci	1024(at)
    1da8:	07020000 	bltzl	t8,1dac <ABIFlags_flags2+0x1d98>
    1dac:	00000028 	0x28
    1db0:	00041d04 	0x41d04
    1db4:	2f100300 	sltiu	s0,t8,768
    1db8:	04000000 	bltz	zero,1dbc <ABIFlags_flags2+0x1da8>
    1dbc:	00000500 	sll	zero,zero,0x14
    1dc0:	002f2703 	0x2f2703
    1dc4:	ec050000 	swc3	$5,0(zero)
    1dc8:	04000003 	bltz	zero,1dd8 <ABIFlags_flags2+0x1dc4>
    1dcc:	008d0161 	0x8d0161
    1dd0:	04020000 	bltzl	zero,1dd4 <ABIFlags_flags2+0x1dc0>
    1dd4:	00011507 	0x11507
    1dd8:	03040600 	0x3040600
    1ddc:	0000b34a 	0xb34a
    1de0:	03e60700 	0x3e60700
    1de4:	4c030000 	lwxc1	$f0,v1(zero)
    1de8:	00000081 	0x81
    1dec:	00039807 	srav	s3,v1,zero
    1df0:	b34d0300 	0xb34d0300
    1df4:	00000000 	nop
    1df8:	00003d08 	0x3d08
    1dfc:	0000c300 	sll	t8,zero,0xc
    1e00:	00c30900 	0xc30900
    1e04:	00030000 	sll	zero,v1,0x0
    1e08:	17070402 	bne	t8,a3,2e14 <ABIFlags_flags2+0x2e00>
    1e0c:	0a000002 	j	8000008 <__memory_size+0x7fe0808>
    1e10:	eb470308 	swc2	$7,776(k0)
    1e14:	0b000000 	j	c000000 <__memory_size+0xbfe0800>
    1e18:	000004ea 	0x4ea
    1e1c:	00284903 	0x284903
    1e20:	0b000000 	j	c000000 <__memory_size+0xbfe0800>
    1e24:	000004f2 	tlt	zero,zero,0x13
    1e28:	00944e03 	0x944e03
    1e2c:	00040000 	sll	zero,a0,0x0
    1e30:	00047d04 	0x47d04
    1e34:	ca4f0300 	lwc2	$15,768(s2)
    1e38:	04000000 	bltz	zero,1e3c <ABIFlags_flags2+0x1e28>
    1e3c:	0000035b 	0x35b
    1e40:	00605303 	0x605303
    1e44:	040c0000 	teqi	zero,0
    1e48:	00053c04 	0x53c04
    1e4c:	21160500 	addi	s6,t0,1280
    1e50:	0d000000 	jal	4000000 <__memory_size+0x3fe0800>
    1e54:	0000036c 	0x36c
    1e58:	612d0518 	0x612d0518
    1e5c:	0b000001 	j	c000004 <__memory_size+0xbfe0804>
    1e60:	0000049e 	0x49e
    1e64:	01612f05 	0x1612f05
    1e68:	0e000000 	jal	8000000 <__memory_size+0x7fe0800>
    1e6c:	05006b5f 	bltz	t0,1cbec <ABIFlags_flags2+0x1cbd8>
    1e70:	00002830 	tge	zero,zero,0xa0
    1e74:	d50b0400 	ldc1	$f11,1024(t0)
    1e78:	05000004 	bltz	t0,1e8c <ABIFlags_flags2+0x1e78>
    1e7c:	00002830 	tge	zero,zero,0xa0
    1e80:	550b0800 	bnel	t0,t3,3e84 <ABIFlags_flags2+0x3e70>
    1e84:	05000003 	bltz	t0,1e94 <ABIFlags_flags2+0x1e80>
    1e88:	00002830 	tge	zero,zero,0xa0
    1e8c:	830b0c00 	lb	t3,3072(t8)
    1e90:	05000005 	bltz	t0,1ea8 <ABIFlags_flags2+0x1e94>
    1e94:	00002830 	tge	zero,zero,0xa0
    1e98:	5f0e1000 	0x5f0e1000
    1e9c:	31050078 	andi	a1,t0,0x78
    1ea0:	00000167 	0x167
    1ea4:	040f0014 	0x40f0014
    1ea8:	0000010e 	0x10e
    1eac:	00010308 	0x10308
    1eb0:	00017700 	sll	t6,at,0x1c
    1eb4:	00c30900 	0xc30900
    1eb8:	00000000 	nop
    1ebc:	0003930d 	break	0x3,0x24c
    1ec0:	35052400 	ori	a1,t0,0x2400
    1ec4:	000001f0 	tge	zero,zero,0x7
    1ec8:	00028d0b 	0x28d0b
    1ecc:	28370500 	slti	s7,at,1280
    1ed0:	00000000 	nop
    1ed4:	0005120b 	0x5120b
    1ed8:	28380500 	slti	t8,at,1280
    1edc:	04000000 	bltz	zero,1ee0 <ABIFlags_flags2+0x1ecc>
    1ee0:	0002a20b 	0x2a20b
    1ee4:	28390500 	slti	t9,at,1280
    1ee8:	08000000 	j	0 <hardware_exit_hook>
    1eec:	0005fc0b 	0x5fc0b
    1ef0:	283a0500 	slti	k0,at,1280
    1ef4:	0c000000 	jal	0 <hardware_exit_hook>
    1ef8:	0004090b 	0x4090b
    1efc:	283b0500 	slti	k1,at,1280
    1f00:	10000000 	b	1f04 <ABIFlags_flags2+0x1ef0>
    1f04:	0005080b 	movn	at,zero,a1
    1f08:	283c0500 	slti	gp,at,1280
    1f0c:	14000000 	bnez	zero,1f10 <ABIFlags_flags2+0x1efc>
    1f10:	0005880b 	movn	s1,zero,a1
    1f14:	283d0500 	slti	sp,at,1280
    1f18:	18000000 	blez	zero,1f1c <ABIFlags_flags2+0x1f08>
    1f1c:	00045f0b 	0x45f0b
    1f20:	283e0500 	slti	s8,at,1280
    1f24:	1c000000 	bgtz	zero,1f28 <ABIFlags_flags2+0x1f14>
    1f28:	0005c30b 	0x5c30b
    1f2c:	283f0500 	slti	ra,at,1280
    1f30:	20000000 	addi	zero,zero,0
    1f34:	02b11000 	0x2b11000
    1f38:	01080000 	0x1080000
    1f3c:	02304805 	lsa	t1,s1,s0,0x1
    1f40:	2c0b0000 	sltiu	t3,zero,0
    1f44:	05000002 	bltz	t0,1f50 <ABIFlags_flags2+0x1f3c>
    1f48:	00023049 	0x23049
    1f4c:	200b0000 	addi	t3,zero,0
    1f50:	05000002 	bltz	t0,1f5c <ABIFlags_flags2+0x1f48>
    1f54:	0002304a 	0x2304a
    1f58:	2e118000 	sltiu	s1,s0,-32768
    1f5c:	05000005 	bltz	t0,1f74 <ABIFlags_flags2+0x1f60>
    1f60:	0001034c 	syscall	0x40d
    1f64:	11010000 	beq	t0,at,1f68 <ABIFlags_flags2+0x1f54>
    1f68:	000002d6 	0x2d6
    1f6c:	01034f05 	0x1034f05
    1f70:	01040000 	0x1040000
    1f74:	01010800 	0x1010800
    1f78:	02400000 	0x2400000
    1f7c:	c3090000 	ll	t1,0(t8)
    1f80:	1f000000 	bgtz	t8,1f84 <ABIFlags_flags2+0x1f70>
    1f84:	020f1000 	0x20f1000
    1f88:	01900000 	0x1900000
    1f8c:	027e5b05 	0x27e5b05
    1f90:	9e0b0000 	0x9e0b0000
    1f94:	05000004 	bltz	t0,1fa8 <ABIFlags_flags2+0x1f94>
    1f98:	00027e5c 	0x27e5c
    1f9c:	b60b0000 	0xb60b0000
    1fa0:	05000004 	bltz	t0,1fb4 <ABIFlags_flags2+0x1fa0>
    1fa4:	0000285d 	0x285d
    1fa8:	500b0400 	beql	zero,t3,2fac <ABIFlags_flags2+0x2f98>
    1fac:	05000003 	bltz	t0,1fbc <ABIFlags_flags2+0x1fa8>
    1fb0:	0002845f 	0x2845f
    1fb4:	b10b0800 	0xb10b0800
    1fb8:	05000002 	bltz	t0,1fc4 <ABIFlags_flags2+0x1fb0>
    1fbc:	0001f060 	0x1f060
    1fc0:	0f008800 	jal	c022000 <__memory_size+0xc002800>
    1fc4:	00024004 	sllv	t0,v0,zero
    1fc8:	02940800 	0x2940800
    1fcc:	02940000 	0x2940000
    1fd0:	c3090000 	ll	t1,0(t8)
    1fd4:	1f000000 	bgtz	t8,1fd8 <ABIFlags_flags2+0x1fc4>
    1fd8:	9a040f00 	lwr	a0,3840(s0)
    1fdc:	12000002 	beqz	s0,1fe8 <ABIFlags_flags2+0x1fd4>
    1fe0:	0004690d 	break	0x4,0x1a4
    1fe4:	73050800 	madd	$ac1,t8,a1
    1fe8:	000002c0 	sll	zero,zero,0xb
    1fec:	00029c0b 	0x29c0b
    1ff0:	c0740500 	ll	s4,1280(v1)
    1ff4:	00000002 	srl	zero,zero,0x0
    1ff8:	00087d0b 	0x87d0b
    1ffc:	28750500 	slti	s5,v1,1280
    2000:	04000000 	bltz	zero,2004 <ABIFlags_flags2+0x1ff0>
    2004:	3d040f00 	0x3d040f00
    2008:	0d000000 	jal	4000000 <__memory_size+0x3fe0800>
    200c:	00000488 	0x488
    2010:	f0b30568 	0xf0b30568
    2014:	0e000003 	jal	800000c <__memory_size+0x7fe080c>
    2018:	0500705f 	bltz	t0,1e198 <ABIFlags_flags2+0x1e184>
    201c:	0002c0b4 	teq	zero,v0,0x302
    2020:	5f0e0000 	0x5f0e0000
    2024:	b5050072 	0xb5050072
    2028:	00000028 	0x28
    202c:	775f0e04 	jalx	d7c3810 <__memory_size+0xd7a4010>
    2030:	28b60500 	slti	s6,a1,1280
    2034:	08000000 	j	0 <hardware_exit_hook>
    2038:	0002cf0b 	0x2cf0b
    203c:	44b70500 	0x44b70500
    2040:	0c000000 	jal	0 <hardware_exit_hook>
    2044:	0003af0b 	0x3af0b
    2048:	44b80500 	0x44b80500
    204c:	0e000000 	jal	8000000 <__memory_size+0x7fe0800>
    2050:	66625f0e 	0x66625f0e
    2054:	9bb90500 	lwr	t9,1280(sp)
    2058:	10000002 	b	2064 <ABIFlags_flags2+0x2050>
    205c:	0002670b 	0x2670b
    2060:	28ba0500 	slti	k0,a1,1280
    2064:	18000000 	blez	zero,2068 <ABIFlags_flags2+0x2054>
    2068:	0002bf0b 	0x2bf0b
    206c:	01c10500 	0x1c10500
    2070:	1c000001 	bgtz	zero,2078 <ABIFlags_flags2+0x2064>
    2074:	0003830b 	0x3830b
    2078:	53c30500 	beql	s8,v1,347c <ABIFlags_flags2+0x3468>
    207c:	20000005 	addi	zero,zero,5
    2080:	0003fb0b 	0x3fb0b
    2084:	82c50500 	lb	a1,1280(s6)
    2088:	24000005 	li	zero,5
    208c:	0004fa0b 	0x4fa0b
    2090:	a6c80500 	sh	t0,1280(s6)
    2094:	28000005 	slti	zero,zero,5
    2098:	0005dd0b 	0x5dd0b
    209c:	c0c90500 	ll	t1,1280(a2)
    20a0:	2c000005 	sltiu	zero,zero,5
    20a4:	62755f0e 	0x62755f0e
    20a8:	9bcc0500 	lwr	t4,1280(s8)
    20ac:	30000002 	andi	zero,zero,0x2
    20b0:	70755f0e 	q16add	xr12,xr7,xr5,xr13,AA,LW
    20b4:	c0cd0500 	ll	t5,1280(a2)
    20b8:	38000002 	xori	zero,zero,0x2
    20bc:	72755f0e 	q16add	xr12,xr7,xr5,xr13,SA,LW
    20c0:	28ce0500 	slti	t6,a2,1280
    20c4:	3c000000 	lui	zero,0x0
    20c8:	0002960b 	0x2960b
    20cc:	c6d10500 	lwc1	$f17,1280(s6)
    20d0:	40000005 	mfc0	zero,$0,5
    20d4:	0005b50b 	0x5b50b
    20d8:	d6d20500 	ldc1	$f18,1280(s6)
    20dc:	43000005 	c0	0x1000005
    20e0:	626c5f0e 	0x626c5f0e
    20e4:	9bd50500 	lwr	s5,1280(s8)
    20e8:	44000002 	mfc1	zero,$f0
    20ec:	0002e50b 	0x2e50b
    20f0:	28d80500 	slti	t8,a2,1280
    20f4:	4c000000 	lwxc1	$f0,zero(zero)
    20f8:	0002f60b 	0x2f60b
    20fc:	6bd90500 	0x6bd90500
    2100:	50000000 	beqzl	zero,2104 <ABIFlags_flags2+0x20f0>
    2104:	00060c0b 	0x60c0b
    2108:	0edc0500 	jal	b701400 <__memory_size+0xb6e1c00>
    210c:	54000004 	bnezl	zero,2120 <ABIFlags_flags2+0x210c>
    2110:	0006db0b 	0x6db0b
    2114:	f6e00500 	sdc1	$f0,1280(s7)
    2118:	58000000 	blezl	zero,211c <ABIFlags_flags2+0x2108>
    211c:	0004900b 	movn	s2,zero,a0
    2120:	ebe20500 	swc2	$2,1280(ra)
    2124:	5c000000 	bgtzl	zero,2128 <ABIFlags_flags2+0x2114>
    2128:	0003f30b 	0x3f30b
    212c:	28e30500 	slti	v1,a3,1280
    2130:	64000000 	0x64000000
    2134:	00281300 	0x281300
    2138:	040e0000 	tnei	zero,0
    213c:	0e140000 	jal	8500000 <__memory_size+0x84e0800>
    2140:	14000004 	bnez	zero,2154 <ABIFlags_flags2+0x2140>
    2144:	00000101 	0x101
    2148:	00054614 	0x54614
    214c:	00281400 	0x281400
    2150:	0f000000 	jal	c000000 <__memory_size+0xbfe0800>
    2154:	00041404 	0x41404
    2158:	04dd1500 	0x4dd1500
    215c:	04280000 	tgei	at,0
    2160:	46023905 	c1	0x23905
    2164:	16000005 	bnez	s0,217c <ABIFlags_flags2+0x2168>
    2168:	00000a11 	0xa11
    216c:	28023b05 	slti	v0,zero,15109
    2170:	00000000 	nop
    2174:	0002de16 	0x2de16
    2178:	02400500 	0x2400500
    217c:	0000062d 	0x62d
    2180:	039f1604 	0x39f1604
    2184:	40050000 	mfc0	a1,c0_index
    2188:	00062d02 	srl	a1,a2,0x14
    218c:	64160800 	0x64160800
    2190:	05000003 	bltz	t0,21a0 <ABIFlags_flags2+0x218c>
    2194:	062d0240 	0x62d0240
    2198:	160c0000 	bne	s0,t4,219c <ABIFlags_flags2+0x2188>
    219c:	000004b1 	tgeu	zero,zero,0x12
    21a0:	28024205 	slti	v0,zero,16901
    21a4:	10000000 	b	21a8 <ABIFlags_flags2+0x2194>
    21a8:	00023c16 	0x23c16
    21ac:	02430500 	0x2430500
    21b0:	0000080f 	0x80f
    21b4:	05641614 	0x5641614
    21b8:	45050000 	bc1t	$fcc1,21bc <ABIFlags_flags2+0x21a8>
    21bc:	00002802 	srl	a1,zero,0x0
    21c0:	bb163000 	swr	s6,12288(t8)
    21c4:	05000004 	bltz	t0,21d8 <ABIFlags_flags2+0x21c4>
    21c8:	05770246 	0x5770246
    21cc:	16340000 	bne	s1,s4,21d0 <ABIFlags_flags2+0x21bc>
    21d0:	00000412 	0x412
    21d4:	28024805 	slti	v0,zero,18437
    21d8:	38000000 	xori	zero,zero,0x0
    21dc:	0004cb16 	0x4cb16
    21e0:	024a0500 	0x24a0500
    21e4:	0000082a 	slt	at,zero,zero
    21e8:	03de163c 	0x3de163c
    21ec:	4d050000 	lwxc1	$f0,a1(t0)
    21f0:	00016102 	srl	t4,at,0x4
    21f4:	89164000 	lwl	s6,16384(t0)
    21f8:	05000003 	bltz	t0,2208 <ABIFlags_flags2+0x21f4>
    21fc:	0028024e 	0x28024e
    2200:	16440000 	bne	s2,a0,2204 <ABIFlags_flags2+0x21f0>
    2204:	000005f7 	0x5f7
    2208:	61024f05 	0x61024f05
    220c:	48000001 	mfc2	zero,$0,1
    2210:	00043516 	0x43516
    2214:	02500500 	0x2500500
    2218:	00000830 	tge	zero,zero,0x20
    221c:	03a7164c 	syscall	0xe9c59
    2220:	53050000 	beql	t8,a1,2224 <ABIFlags_flags2+0x2210>
    2224:	00002802 	srl	a1,zero,0x0
    2228:	ee165000 	swc3	$22,20480(s0)
    222c:	05000002 	bltz	t0,2238 <ABIFlags_flags2+0x2224>
    2230:	05460254 	0x5460254
    2234:	16540000 	bne	s2,s4,2238 <ABIFlags_flags2+0x2224>
    2238:	00000451 	0x451
    223c:	ed027705 	swc3	$2,30469(t0)
    2240:	58000007 	blezl	zero,2260 <ABIFlags_flags2+0x224c>
    2244:	00020f17 	0x20f17
    2248:	027b0500 	0x27b0500
    224c:	0000027e 	0x27e
    2250:	bc170148 	cache	0x17,328(zero)
    2254:	05000003 	bltz	t0,2264 <ABIFlags_flags2+0x2250>
    2258:	0240027c 	0x240027c
    225c:	014c0000 	0x14c0000
    2260:	0005ab17 	0x5ab17
    2264:	02800500 	0x2800500
    2268:	00000841 	0x841
    226c:	c71702dc 	lwc1	$f23,732(t8)
    2270:	05000002 	bltz	t0,227c <ABIFlags_flags2+0x2268>
    2274:	05f20285 	bltzall	t7,2c8c <ABIFlags_flags2+0x2c78>
    2278:	02e00000 	0x2e00000
    227c:	0002ac17 	0x2ac17
    2280:	02860500 	0x2860500
    2284:	0000084d 	break	0x0,0x21
    2288:	0f0002ec 	jal	c000bb0 <__memory_size+0xbfe13b0>
    228c:	00054c04 	0x54c04
    2290:	08010200 	j	40800 <__memory_size+0x21000>
    2294:	000001d3 	0x1d3
    2298:	03f0040f 	0x3f0040f
    229c:	28130000 	slti	s3,zero,0
    22a0:	77000000 	jalx	c000000 <__memory_size+0xbfe0800>
    22a4:	14000005 	bnez	zero,22bc <ABIFlags_flags2+0x22a8>
    22a8:	0000040e 	0x40e
    22ac:	00010114 	0x10114
    22b0:	05771400 	0x5771400
    22b4:	28140000 	slti	s4,zero,0
    22b8:	00000000 	nop
    22bc:	057d040f 	0x57d040f
    22c0:	4c180000 	lwxc1	$f0,t8(zero)
    22c4:	0f000005 	jal	c000014 <__memory_size+0xbfe0814>
    22c8:	00055904 	0x55904
    22cc:	00761300 	0x761300
    22d0:	05a60000 	0x5a60000
    22d4:	0e140000 	jal	8500000 <__memory_size+0x84e0800>
    22d8:	14000004 	bnez	zero,22ec <ABIFlags_flags2+0x22d8>
    22dc:	00000101 	0x101
    22e0:	00007614 	0x7614
    22e4:	00281400 	0x281400
    22e8:	0f000000 	jal	c000000 <__memory_size+0xbfe0800>
    22ec:	00058804 	sllv	s1,a1,zero
    22f0:	00281300 	0x281300
    22f4:	05c00000 	bltz	t6,22f8 <ABIFlags_flags2+0x22e4>
    22f8:	0e140000 	jal	8500000 <__memory_size+0x84e0800>
    22fc:	14000004 	bnez	zero,2310 <ABIFlags_flags2+0x22fc>
    2300:	00000101 	0x101
    2304:	ac040f00 	sw	a0,3840(zero)
    2308:	08000005 	j	14 <ABIFlags_flags2>
    230c:	0000003d 	0x3d
    2310:	000005d6 	0x5d6
    2314:	0000c309 	0xc309
    2318:	08000200 	j	800 <ABIFlags_flags2+0x7ec>
    231c:	0000003d 	0x3d
    2320:	000005e6 	0x5e6
    2324:	0000c309 	0xc309
    2328:	05000000 	bltz	t0,232c <ABIFlags_flags2+0x2318>
    232c:	00000476 	tne	zero,zero,0x11
    2330:	c6011d05 	lwc1	$f1,7429(s0)
    2334:	19000002 	blez	t0,2340 <ABIFlags_flags2+0x232c>
    2338:	00000592 	0x592
    233c:	0121050c 	syscall	0x48414
    2340:	00000627 	0x627
    2344:	00049e16 	0x49e16
    2348:	01230500 	0x1230500
    234c:	00000627 	0x627
    2350:	03b51600 	0x3b51600
    2354:	24050000 	li	a1,0
    2358:	00002801 	movf	a1,zero,$fcc0
    235c:	70160400 	0x70160400
    2360:	05000004 	bltz	t0,2374 <ABIFlags_flags2+0x2360>
    2364:	062d0125 	0x62d0125
    2368:	00080000 	sll	zero,t0,0x0
    236c:	05f2040f 	bltzall	t7,33ac <ABIFlags_flags2+0x3398>
    2370:	040f0000 	0x40f0000
    2374:	000005e6 	0x5e6
    2378:	00023419 	0x23419
    237c:	3d050e00 	0x3d050e00
    2380:	00066801 	0x66801
    2384:	04e41600 	0x4e41600
    2388:	3e050000 	0x3e050000
    238c:	00066801 	0x66801
    2390:	1b160000 	0x1b160000
    2394:	05000005 	bltz	t0,23ac <ABIFlags_flags2+0x2398>
    2398:	0668013f 	tgei	s3,319
    239c:	16060000 	bne	s0,a2,23a0 <ABIFlags_flags2+0x238c>
    23a0:	00000537 	0x537
    23a4:	4b014005 	c2	0x1014005
    23a8:	0c000000 	jal	0 <hardware_exit_hook>
    23ac:	004b0800 	0x4b0800
    23b0:	06780000 	0x6780000
    23b4:	c3090000 	ll	t1,0(t8)
    23b8:	02000000 	0x2000000
    23bc:	05d01a00 	bltzal	t6,8bc0 <ABIFlags_flags2+0x8bac>
    23c0:	07790258 	0x7790258
    23c4:	76160000 	jalx	8580000 <__memory_size+0x8560800>
    23c8:	05000005 	bltz	t0,23e0 <ABIFlags_flags2+0x23cc>
    23cc:	008d025a 	0x8d025a
    23d0:	16000000 	bnez	s0,23d4 <ABIFlags_flags2+0x23c0>
    23d4:	00000521 	0x521
    23d8:	46025b05 	c1	0x25b05
    23dc:	04000005 	bltz	zero,23f4 <ABIFlags_flags2+0x23e0>
    23e0:	0003d116 	0x3d116
    23e4:	025c0500 	0x25c0500
    23e8:	00000779 	0x779
    23ec:	05ce1608 	tnei	t6,5640
    23f0:	5d050000 	0x5d050000
    23f4:	00017702 	srl	t6,at,0x1c
    23f8:	74162400 	jalx	589000 <__memory_size+0x569800>
    23fc:	05000003 	bltz	t0,240c <ABIFlags_flags2+0x23f8>
    2400:	0028025e 	0x28025e
    2404:	16480000 	bne	s2,t0,2408 <ABIFlags_flags2+0x23f4>
    2408:	00000499 	0x499
    240c:	59025f05 	0x59025f05
    2410:	50000000 	beqzl	zero,2414 <ABIFlags_flags2+0x2400>
    2414:	0005e416 	0x5e416
    2418:	02600500 	0x2600500
    241c:	00000633 	tltu	zero,zero,0x18
    2420:	04a41658 	0x4a41658
    2424:	61050000 	0x61050000
    2428:	0000eb02 	srl	sp,zero,0xc
    242c:	e9166800 	swc2	$22,26624(t0)
    2430:	05000005 	bltz	t0,2448 <ABIFlags_flags2+0x2434>
    2434:	00eb0262 	0xeb0262
    2438:	16700000 	bne	s3,s0,243c <ABIFlags_flags2+0x2428>
    243c:	0000027f 	0x27f
    2440:	eb026305 	swc2	$2,25349(t8)
    2444:	78000000 	andi.b	$w0,$w0,0x0
    2448:	0005a116 	0x5a116
    244c:	02640500 	0x2640500
    2450:	00000789 	0x789
    2454:	03c51680 	0x3c51680
    2458:	65050000 	0x65050000
    245c:	00079902 	srl	s3,a3,0x4
    2460:	44168800 	mfc1	s6,$f17
    2464:	05000005 	bltz	t0,247c <ABIFlags_flags2+0x2468>
    2468:	00280266 	0x280266
    246c:	16a00000 	bnez	s5,2470 <ABIFlags_flags2+0x245c>
    2470:	0000030f 	sync	0xc
    2474:	eb026705 	swc2	$2,26373(t8)
    2478:	a4000000 	sh	zero,0(zero)
    247c:	00027016 	0x27016
    2480:	02680500 	0x2680500
    2484:	000000eb 	0xeb
    2488:	02fe16ac 	0x2fe16ac
    248c:	69050000 	0x69050000
    2490:	0000eb02 	srl	sp,zero,0xc
    2494:	4716b400 	bz.b	$w22,fffef498 <__flash_start+0x403ef498>
    2498:	05000002 	bltz	t0,24a4 <ABIFlags_flags2+0x2490>
    249c:	00eb026a 	0xeb026a
    24a0:	16bc0000 	bne	s5,gp,24a4 <ABIFlags_flags2+0x2490>
    24a4:	00000256 	0x256
    24a8:	eb026b05 	swc2	$2,27397(t8)
    24ac:	c4000000 	lwc1	$f0,0(zero)
    24b0:	00045616 	0x45616
    24b4:	026c0500 	0x26c0500
    24b8:	00000028 	0x28
    24bc:	4c0800cc 	0x4c0800cc
    24c0:	89000005 	lwl	zero,5(t0)
    24c4:	09000007 	j	400001c <__memory_size+0x3fe081c>
    24c8:	000000c3 	sra	zero,zero,0x3
    24cc:	4c080019 	0x4c080019
    24d0:	99000005 	lwr	zero,5(t0)
    24d4:	09000007 	j	400001c <__memory_size+0x3fe081c>
    24d8:	000000c3 	sra	zero,zero,0x3
    24dc:	4c080007 	mfc3	t0,$0,7
    24e0:	a9000005 	swl	zero,5(t0)
    24e4:	09000007 	j	400001c <__memory_size+0x3fe081c>
    24e8:	000000c3 	sra	zero,zero,0x3
    24ec:	f01a0017 	0xf01a0017
    24f0:	cd027105 	pref	0x2,28933(t0)
    24f4:	16000007 	bnez	s0,2514 <ABIFlags_flags2+0x2500>
    24f8:	00000402 	srl	zero,zero,0x10
    24fc:	cd027405 	pref	0x2,29701(t0)
    2500:	00000007 	srav	zero,zero,zero
    2504:	00059816 	0x59816
    2508:	02750500 	0x2750500
    250c:	000007dd 	0x7dd
    2510:	c0080078 	ll	t0,120(zero)
    2514:	dd000002 	ldc3	$0,2(t0)
    2518:	09000007 	j	400001c <__memory_size+0x3fe081c>
    251c:	000000c3 	sra	zero,zero,0x3
    2520:	8d08001d 	lw	t0,29(t0)
    2524:	ed000000 	swc3	$0,0(t0)
    2528:	09000007 	j	400001c <__memory_size+0x3fe081c>
    252c:	000000c3 	sra	zero,zero,0x3
    2530:	f01b001d 	0xf01b001d
    2534:	0f025605 	jal	c095814 <__memory_size+0xc076014>
    2538:	1c000008 	bgtz	zero,255c <ABIFlags_flags2+0x2548>
    253c:	000004dd 	0x4dd
    2540:	78026d05 	0x78026d05
    2544:	1c000006 	bgtz	zero,2560 <ABIFlags_flags2+0x254c>
    2548:	000005bb 	0x5bb
    254c:	a9027605 	swl	v0,30213(t0)
    2550:	00000007 	srav	zero,zero,zero
    2554:	00054c08 	0x54c08
    2558:	00081f00 	sll	v1,t0,0x1c
    255c:	00c30900 	0xc30900
    2560:	00180000 	sll	zero,t8,0x0
    2564:	00082a1d 	0x82a1d
    2568:	040e1400 	tnei	zero,5120
    256c:	0f000000 	jal	c000000 <__memory_size+0xbfe0800>
    2570:	00081f04 	0x81f04
    2574:	61040f00 	0x61040f00
    2578:	1d000001 	bgtz	t0,2580 <ABIFlags_flags2+0x256c>
    257c:	00000841 	0x841
    2580:	00002814 	0x2814
    2584:	040f0000 	0x40f0000
    2588:	00000847 	0x847
    258c:	0836040f 	j	d8103c <__memory_size+0xd6183c>
    2590:	e6080000 	swc1	$f8,0(s0)
    2594:	5d000005 	bgtzl	t0,25ac <ABIFlags_flags2+0x2598>
    2598:	09000008 	j	4000020 <__memory_size+0x3fe0820>
    259c:	000000c3 	sra	zero,zero,0x3
    25a0:	241e0002 	li	s8,2
    25a4:	01000004 	sllv	zero,zero,t0
    25a8:	0008a842 	srl	s5,t0,0x1
    25ac:	00018080 	sll	s0,at,0x2
    25b0:	1e9c0100 	0x1e9c0100
    25b4:	1f000009 	bgtz	t8,25dc <ABIFlags_flags2+0x25c8>
    25b8:	000007aa 	0x7aa
    25bc:	00284201 	0x284201
    25c0:	015c0000 	0x15c0000
    25c4:	64200000 	0x64200000
    25c8:	01420100 	0x1420100
    25cc:	88000001 	lwl	zero,1(zero)
    25d0:	21000001 	addi	zero,t0,1
    25d4:	45010070 	bc1t	2798 <ABIFlags_flags2+0x2784>
    25d8:	0000027e 	0x27e
    25dc:	000001b4 	teq	zero,zero,0x6
    25e0:	00068922 	0x68922
    25e4:	1e460100 	0x1e460100
    25e8:	d3000009 	0xd3000009
    25ec:	22000001 	addi	zero,s0,1
    25f0:	000002ba 	0x2ba
    25f4:	09244701 	j	4911c04 <__memory_size+0x48f2404>
    25f8:	01fc0000 	0x1fc0000
    25fc:	6e210000 	0x6e210000
    2600:	28480100 	slti	t0,v0,256
    2604:	23000000 	addi	zero,t8,0
    2608:	21000002 	addi	zero,t0,2
    260c:	49010069 	bc2t	27b4 <ABIFlags_flags2+0x27a0>
    2610:	00000028 	0x28
    2614:	00000236 	tne	zero,zero,0x8
    2618:	006e6621 	0x6e6621
    261c:	02944a01 	0x2944a01
    2620:	026b0000 	0x26b0000
    2624:	8f230000 	lw	v1,0(t9)
    2628:	01000006 	srlv	zero,zero,t0
    262c:	00002451 	0x2451
    2630:	090d0000 	j	4340000 <__memory_size+0x4320800>
    2634:	69210000 	0x69210000
    2638:	0100646e 	0x100646e
    263c:	0000285e 	0x285e
    2640:	00029400 	sll	s2,v0,0x10
    2644:	09e42500 	j	7909400 <__memory_size+0x78e9c00>
    2648:	01268000 	0x1268000
    264c:	00860254 	0x860254
    2650:	b8270000 	swr	a3,0(at)
    2654:	47800009 	bnz.b	$w0,267c <ABIFlags_flags2+0x2668>
    2658:	26000009 	addiu	zero,s0,9
    265c:	80025401 	lb	v0,21505(zero)
    2660:	0f000000 	jal	c000000 <__memory_size+0xbfe0800>
    2664:	00027e04 	0x27e04
    2668:	f0040f00 	0xf0040f00
    266c:	28000001 	slti	zero,zero,1
    2670:	000006d3 	0x6d3
    2674:	00280e01 	0x280e01
    2678:	29000000 	slti	zero,t0,0
    267c:	00000551 	0x551
    2680:	4202fb05 	c0	0x2fb05
    2684:	18000009 	blez	zero,26ac <ABIFlags_flags2+0x2698>
    2688:	0000040e 	0x40e
    268c:	0006842a 	0x6842a
    2690:	14550600 	bne	v0,s5,3e94 <ABIFlags_flags2+0x3e80>
    2694:	00000101 	0x101
    2698:	01220000 	0x1220000
    269c:	00040000 	sll	zero,a0,0x0
    26a0:	000008ef 	0x8ef
    26a4:	06e10104 	bgez	s7,2ab8 <ABIFlags_flags2+0x2aa4>
    26a8:	d6010000 	ldc1	$f1,0(s0)
    26ac:	28000007 	slti	zero,zero,7
    26b0:	6480000a 	0x6480000a
    26b4:	8e000000 	lw	zero,0(s0)
    26b8:	02000008 	jr	s0
    26bc:	01cc0601 	0x1cc0601
    26c0:	01020000 	0x1020000
    26c4:	0001ca08 	0x1ca08
    26c8:	05020200 	bltzl	t0,2ecc <ABIFlags_flags2+0x2eb8>
    26cc:	00000201 	0x201
    26d0:	b4070202 	0xb4070202
    26d4:	03000000 	0x3000000
    26d8:	000007c7 	0x7c7
    26dc:	00483702 	0x483702
    26e0:	04020000 	bltzl	zero,26e4 <ABIFlags_flags2+0x26d0>
    26e4:	0000ab05 	0xab05
    26e8:	07040200 	0x7040200
    26ec:	00000110 	0x110
    26f0:	a6050802 	sh	a1,2050(s0)
    26f4:	02000000 	0x2000000
    26f8:	010b0708 	0x10b0708
    26fc:	c9030000 	lwc2	$3,0(t0)
    2700:	03000007 	srav	zero,zero,t8
    2704:	00003d41 	0x3d41
    2708:	05040400 	0x5040400
    270c:	00746e69 	0x746e69
    2710:	15070402 	bne	t0,a3,371c <ABIFlags_flags2+0x3708>
    2714:	02000001 	movf	zero,s0,$fcc0
    2718:	02170704 	0x2170704
    271c:	01020000 	0x1020000
    2720:	0001d308 	0x1d308
    2724:	07af0500 	0x7af0500
    2728:	3d010000 	0x3d010000
    272c:	80000a28 	lb	zero,2600(zero)
    2730:	00000064 	0x64
    2734:	00f39c01 	0xf39c01
    2738:	a5060000 	sh	a2,0(t0)
    273c:	01000007 	srav	zero,zero,t0
    2740:	0000643d 	0x643d
    2744:	0002b200 	sll	s6,v0,0x8
    2748:	07d10700 	bgezal	s8,434c <ABIFlags_flags2+0x4338>
    274c:	3f010000 	0x3f010000
    2750:	00000064 	0x64
    2754:	6f085401 	0x6f085401
    2758:	40010070 	0x40010070
    275c:	00000064 	0x64
    2760:	72086901 	0x72086901
    2764:	01007465 	0x1007465
    2768:	00006441 	0x6441
    276c:	09520100 	j	5480400 <__memory_size+0x5460c00>
    2770:	80000a6c 	lb	zero,2668(zero)
    2774:	00000109 	0x109
    2778:	000000e9 	0xe9
    277c:	0254010a 	0x254010a
    2780:	0b000081 	j	c000204 <__memory_size+0xbfe0a04>
    2784:	80000a7c 	lb	zero,2684(zero)
    2788:	0000011a 	0x11a
    278c:	00840c00 	0x840c00
    2790:	00fe0000 	0xfe0000
    2794:	000d0000 	sll	zero,t5,0x0
    2798:	0007b60e 	0x7b60e
    279c:	f33a0100 	0xf33a0100
    27a0:	0f000000 	jal	c000000 <__memory_size+0xbfe0800>
    27a4:	00000794 	0x794
    27a8:	011a3701 	0x11a3701
    27ac:	64100000 	0x64100000
    27b0:	00000000 	nop
    27b4:	00080811 	0x80811
    27b8:	6f360100 	0x6f360100
    27bc:	00000000 	nop
    27c0:	0000009c 	0x9c
    27c4:	09db0004 	j	76c0010 <__memory_size+0x76a0810>
    27c8:	01040000 	0x1040000
    27cc:	000006e1 	0x6e1
    27d0:	00081a01 	0x81a01
    27d4:	000a8c00 	sll	s1,t2,0x10
    27d8:	00001080 	sll	v0,zero,0x2
    27dc:	00098c00 	sll	s1,t1,0x10
    27e0:	085b0200 	j	16c0800 <__memory_size+0x16a1000>
    27e4:	010c0000 	0x10c0000
    27e8:	0000522e 	0x522e
    27ec:	087e0300 	j	1f80c00 <__memory_size+0x1f61400>
    27f0:	30010000 	andi	at,zero,0x0
    27f4:	00000052 	mflhxu	zero
    27f8:	08540300 	j	1500c00 <__memory_size+0x14e1400>
    27fc:	31010000 	andi	at,t0,0x0
    2800:	00000052 	mflhxu	zero
    2804:	086e0304 	j	1b80c10 <__memory_size+0x1b61410>
    2808:	32010000 	andi	at,s0,0x0
    280c:	00000052 	mflhxu	zero
    2810:	04040008 	0x4040008
    2814:	00011507 	0x11507
    2818:	08610500 	j	1841400 <__memory_size+0x1821c00>
    281c:	38010000 	xori	at,zero,0x0
    2820:	80000a8c 	lb	zero,2700(zero)
    2824:	00000010 	mfhi	zero
    2828:	007c9c01 	0x7c9c01
    282c:	6d060000 	0x6d060000
    2830:	01006d65 	0x1006d65
    2834:	00007c38 	0x7c38
    2838:	00540100 	0x540100
    283c:	00210407 	0x210407
    2840:	8d080000 	lw	t0,0(t0)
    2844:	8d000000 	lw	zero,0(t0)
    2848:	09000000 	j	4000000 <__memory_size+0x3fe0800>
    284c:	08010400 	j	41000 <__memory_size+0x21800>
    2850:	000001d3 	0x1d3
    2854:	0008750a 	0x8750a
    2858:	82360100 	lb	s6,256(s1)
    285c:	00000000 	nop
    2860:	000000a8 	0xa8
    2864:	0a670002 	j	99c0008 <__memory_size+0x99a0808>
    2868:	01040000 	0x1040000
    286c:	000009f6 	tne	zero,zero,0x27
    2870:	80000a9c 	lb	zero,2716(zero)
    2874:	80000b54 	lb	zero,2900(zero)
    2878:	6573752f 	0x6573752f
    287c:	696d2f72 	0x696d2f72
    2880:	77737370 	jalx	dcdcdc0 <__memory_size+0xdcbd5c0>
    2884:	69672f74 	0x69672f74
    2888:	656e2f74 	0x656e2f74
    288c:	62696c77 	0x62696c77
    2890:	62696c2f 	0x62696c2f
    2894:	736f6c67 	0x736f6c67
    2898:	696d2f73 	0x696d2f73
    289c:	752f7370 	jalx	4bdcdc0 <__memory_size+0x4bbd5c0>
    28a0:	675f6968 	0x675f6968
    28a4:	72617465 	s8sdi	xr1,s3,93,ptn0
    28a8:	532e7367 	beql	t9,t6,1f648 <ABIFlags_flags2+0x1f634>
    28ac:	73752f00 	0x73752f00
    28b0:	6d2f7265 	0x6d2f7265
    28b4:	73737069 	0x73737069
    28b8:	6f2f7477 	0x6f2f7477
    28bc:	632d6a62 	0x632d6a62
    28c0:	73736f72 	0x73736f72
    28c4:	70696d2d 	s16sdi	xr4,v1,182,ptn1
    28c8:	746d2d73 	jalx	1b4b5cc <__memory_size+0x1b2bdcc>
    28cc:	6c652d69 	0x6c652d69
    28d0:	656e2f66 	0x656e2f66
    28d4:	62696c77 	0x62696c77
    28d8:	70696d2f 	0x70696d2f
    28dc:	746d2d73 	jalx	1b4b5cc <__memory_size+0x1b2bdcc>
    28e0:	6c652d69 	0x6c652d69
    28e4:	6c652f66 	0x6c652f66
    28e8:	666f732f 	0x666f732f
    28ec:	62696c2f 	0x62696c2f
    28f0:	736f6c67 	0x736f6c67
    28f4:	696d2f73 	0x696d2f73
    28f8:	47007370 	bz.b	$w0,1f6bc <ABIFlags_flags2+0x1f6a8>
    28fc:	4120554e 	0x4120554e
    2900:	2e322053 	sltiu	s2,s1,8275
    2904:	392e3432 	xori	t6,t1,0x3432
    2908:	80010030 	lb	at,48(zero)
    290c:	000000a9 	0xa9
    2910:	0a7b0002 	j	9ec0008 <__memory_size+0x9ea0808>
    2914:	01040000 	0x1040000
    2918:	00000a81 	0xa81
    291c:	00000020 	add	zero,zero,zero
    2920:	6573752f 	0x6573752f
    2924:	696d2f72 	0x696d2f72
    2928:	77737370 	jalx	dcdcdc0 <__memory_size+0xdcbd5c0>
    292c:	69672f74 	0x69672f74
    2930:	656e2f74 	0x656e2f74
    2934:	62696c77 	0x62696c77
    2938:	62696c2f 	0x62696c2f
    293c:	736f6c67 	0x736f6c67
    2940:	696d2f73 	0x696d2f73
    2944:	6d2f7370 	0x6d2f7370
    2948:	5f737069 	0x5f737069
    294c:	70637865 	s8sdi	xr1,v1,-34,ptn0
    2950:	6e655f74 	0x6e655f74
    2954:	2e797274 	sltiu	t9,s3,29300
    2958:	752f0053 	jalx	4bc014c <__memory_size+0x4ba094c>
    295c:	2f726573 	sltiu	s2,k1,25971
    2960:	7370696d 	s16sdi	xr5,k1,52,
    2964:	2f747773 	sltiu	s4,k1,30579
    2968:	2d6a626f 	sltiu	t2,t3,25199
    296c:	736f7263 	s8std	xr9,k1,-36,ptn3
    2970:	696d2d73 	0x696d2d73
    2974:	6d2d7370 	0x6d2d7370
    2978:	652d6974 	0x652d6974
    297c:	6e2f666c 	0x6e2f666c
    2980:	696c7765 	0x696c7765
    2984:	696d2f62 	0x696d2f62
    2988:	6d2d7370 	0x6d2d7370
    298c:	652d6974 	0x652d6974
    2990:	652f666c 	0x652f666c
    2994:	6f732f6c 	0x6f732f6c
    2998:	696c2f66 	0x696c2f66
    299c:	6f6c6762 	0x6f6c6762
    29a0:	6d2f7373 	0x6d2f7373
    29a4:	00737069 	0x737069
    29a8:	20554e47 	addi	s5,v0,20039
    29ac:	32205341 	andi	zero,s1,0x5341
    29b0:	2e34322e 	sltiu	s4,s1,12846
    29b4:	01003039 	0x1003039
    29b8:	000a8580 	sll	s0,t2,0x16
    29bc:	8d000400 	lw	zero,1024(t0)
    29c0:	0400000a 	bltz	zero,29ec <ABIFlags_flags2+0x29d8>
    29c4:	0006e101 	0x6e101
    29c8:	08e00100 	j	3800400 <__memory_size+0x37e0c00>
    29cc:	0b540000 	j	d500000 <__memory_size+0xd4e0800>
    29d0:	06b88000 	0x6b88000
    29d4:	0b8b0000 	j	e2c0000 <__memory_size+0xe2a0800>
    29d8:	46020000 	add.s	$f0,$f0,$f2
    29dc:	02000006 	srlv	zero,zero,s0
    29e0:	00002cd4 	0x2cd4
    29e4:	07040300 	0x7040300
    29e8:	00000110 	0x110
    29ec:	69050404 	0x69050404
    29f0:	0300746e 	0x300746e
    29f4:	00ab0504 	0xab0504
    29f8:	01030000 	0x1030000
    29fc:	0001cc06 	0x1cc06
    2a00:	08010300 	j	40c00 <__memory_size+0x21400>
    2a04:	000001ca 	0x1ca
    2a08:	01050203 	0x1050203
    2a0c:	03000002 	0x3000002
    2a10:	00b40702 	0xb40702
    2a14:	c7020000 	lwc1	$f2,0(t8)
    2a18:	03000007 	srav	zero,zero,t8
    2a1c:	00003a37 	0x3a37
    2a20:	08a80200 	j	2a00800 <__memory_size+0x29e1000>
    2a24:	38030000 	xori	v1,zero,0x0
    2a28:	0000002c 	0x2c
    2a2c:	a6050803 	sh	a1,2051(s0)
    2a30:	03000000 	0x3000000
    2a34:	010b0708 	0x10b0708
    2a38:	04030000 	bgezl	zero,2a3c <ABIFlags_flags2+0x2a28>
    2a3c:	00011507 	0x11507
    2a40:	07040300 	0x7040300
    2a44:	00000217 	0x217
    2a48:	01030405 	0x1030405
    2a4c:	0001d308 	0x1d308
    2a50:	9e040600 	0x9e040600
    2a54:	07000000 	bltz	t8,2a58 <ABIFlags_flags2+0x2a44>
    2a58:	00000091 	0x91
    2a5c:	00a90406 	0xa90406
    2a60:	02080000 	0x2080000
    2a64:	000007c9 	0x7c9
    2a68:	005d4104 	0x5d4104
    2a6c:	aa020000 	swl	v0,0(s0)
    2a70:	04000008 	bltz	zero,2a94 <ABIFlags_flags2+0x2a80>
    2a74:	00006842 	srl	t5,zero,0x1
    2a78:	092b0200 	j	4ac0800 <__memory_size+0x4aa1000>
    2a7c:	29050000 	slti	a1,t0,0
    2a80:	000000b5 	0xb5
    2a84:	00091c09 	0x91c09
    2a88:	5b05a000 	0x5b05a000
    2a8c:	000001b6 	tne	zero,zero,0x6
    2a90:	0074610a 	0x74610a
    2a94:	00c05d05 	0xc05d05
    2a98:	0a000000 	j	8000000 <__memory_size+0x7fe0800>
    2a9c:	5e050076 	0x5e050076
    2aa0:	000001b6 	tne	zero,zero,0x6
    2aa4:	00610a04 	0x610a04
    2aa8:	01c65f05 	0x1c65f05
    2aac:	0a0c0000 	j	8300000 <__memory_size+0x82e0800>
    2ab0:	60050074 	0x60050074
    2ab4:	000001d6 	0x1d6
    2ab8:	00730a1c 	0x730a1c
    2abc:	01d66105 	0x1d66105
    2ac0:	0a3c0000 	j	8f00000 <__memory_size+0x8ee0800>
    2ac4:	05003274 	bltz	t0,f498 <ABIFlags_flags2+0xf484>
    2ac8:	0001b662 	0x1b662
    2acc:	6b0a5c00 	0x6b0a5c00
    2ad0:	b6630500 	0xb6630500
    2ad4:	64000001 	0x64000001
    2ad8:	0070670a 	0x70670a
    2adc:	00c06405 	0xc06405
    2ae0:	0a6c0000 	j	9b00000 <__memory_size+0x9ae0800>
    2ae4:	05007073 	bltz	t0,1ecb4 <ABIFlags_flags2+0x1eca0>
    2ae8:	0000c065 	0xc065
    2aec:	660a7000 	0x660a7000
    2af0:	66050070 	0x66050070
    2af4:	000000c0 	ehb
    2af8:	61720a74 	0x61720a74
    2afc:	c0670500 	ll	a3,1280(v1)
    2b00:	78000000 	andi.b	$w0,$w0,0x0
    2b04:	6370650a 	0x6370650a
    2b08:	c0680500 	ll	t0,1280(v1)
    2b0c:	7c000000 	ext	zero,zero,0x0,0x1
    2b10:	0009220b 	0x9220b
    2b14:	c0690500 	ll	t1,1280(v1)
    2b18:	80000000 	lb	zero,0(zero)
    2b1c:	0069680a 	movz	t5,v1,t1
    2b20:	00c06a05 	0xc06a05
    2b24:	0a840000 	j	a100000 <__memory_size+0xa0e0800>
    2b28:	05006f6c 	bltz	t0,1e8dc <ABIFlags_flags2+0x1e8c8>
    2b2c:	0000c06b 	0xc06b
    2b30:	b30b8800 	0xb30b8800
    2b34:	05000008 	bltz	t0,2b58 <ABIFlags_flags2+0x2b44>
    2b38:	00008f6d 	0x8f6d
    2b3c:	740b8c00 	jalx	2e3000 <__memory_size+0x2c3800>
    2b40:	05000009 	bltz	t0,2b68 <ABIFlags_flags2+0x2b54>
    2b44:	0000b570 	tge	zero,zero,0x2d5
    2b48:	9c0b9000 	0x9c0b9000
    2b4c:	05000008 	bltz	t0,2b70 <ABIFlags_flags2+0x2b5c>
    2b50:	0000b572 	tlt	zero,zero,0x2d5
    2b54:	850b9400 	lh	t3,-27648(t0)
    2b58:	05000009 	bltz	t0,2b80 <ABIFlags_flags2+0x2b6c>
    2b5c:	0000b573 	tltu	zero,zero,0x2d5
    2b60:	7b0b9800 	xori.b	$w0,$w19,0xb
    2b64:	05000009 	bltz	t0,2b8c <ABIFlags_flags2+0x2b78>
    2b68:	0000b574 	teq	zero,zero,0x2d5
    2b6c:	0c009c00 	jal	27000 <__memory_size+0x7800>
    2b70:	000000c0 	ehb
    2b74:	000001c6 	0x1c6
    2b78:	0000880d 	break	0x0,0x220
    2b7c:	0c000100 	jal	400 <ABIFlags_flags2+0x3ec>
    2b80:	000000c0 	ehb
    2b84:	000001d6 	0x1d6
    2b88:	0000880d 	break	0x0,0x220
    2b8c:	0c000300 	jal	c00 <ABIFlags_flags2+0xbec>
    2b90:	000000c0 	ehb
    2b94:	000001e6 	0x1e6
    2b98:	0000880d 	break	0x0,0x220
    2b9c:	0e000700 	jal	8001c00 <__memory_size+0x7fe2400>
    2ba0:	00000956 	0x956
    2ba4:	40014e01 	0x40014e01
    2ba8:	0f000002 	jal	c000008 <__memory_size+0xbfe0808>
    2bac:	00657270 	tge	v1,a1,0x1c9
    2bb0:	00984e01 	0x984e01
    2bb4:	f4100000 	sdc1	$f16,0(zero)
    2bb8:	01000004 	sllv	zero,zero,t0
    2bbc:	0000c04e 	0xc04e
    2bc0:	095e1000 	j	5784000 <__memory_size+0x5764800>
    2bc4:	4e010000 	lwxc1	$f0,at(s0)
    2bc8:	00000033 	tltu	zero,zero
    2bcc:	0008db10 	0x8db10
    2bd0:	984e0100 	lwr	t6,256(v0)
    2bd4:	11000000 	beqz	t0,2bd8 <ABIFlags_flags2+0x2bc4>
    2bd8:	00667562 	0x667562
    2bdc:	02405001 	movf	t2,s2,$fcc0
    2be0:	a2120000 	sb	s2,0(s0)
    2be4:	01000008 	jr	t0
    2be8:	00003351 	0x3351
    2bec:	64691100 	0x64691100
    2bf0:	52010078 	beql	s0,at,2dd4 <ABIFlags_flags2+0x2dc0>
    2bf4:	00000033 	tltu	zero,zero
    2bf8:	00910c00 	0x910c00
    2bfc:	024f0000 	0x24f0000
    2c00:	88130000 	lwl	s3,0(zero)
    2c04:	00000000 	nop
    2c08:	0001e614 	0x1e614
    2c0c:	000b5400 	sll	t2,t3,0x10
    2c10:	0000c080 	sll	t8,zero,0x2
    2c14:	179c0100 	bne	gp,gp,3018 <ABIFlags_flags2+0x3004>
    2c18:	15000003 	bnez	t0,2c28 <ABIFlags_flags2+0x2c14>
    2c1c:	000001f2 	tlt	zero,zero,0x7
    2c20:	000002d0 	0x2d0
    2c24:	0001fd15 	0x1fd15
    2c28:	0002fc00 	sll	ra,v0,0x10
    2c2c:	02131500 	0x2131500
    2c30:	03280000 	0x3280000
    2c34:	1e160000 	0x1e160000
    2c38:	17000002 	bnez	t8,2c44 <ABIFlags_flags2+0x2c30>
    2c3c:	54000003 	bnezl	zero,2c4c <ABIFlags_flags2+0x2c38>
    2c40:	17000003 	bnez	t8,2c50 <ABIFlags_flags2+0x2c3c>
    2c44:	00000229 	0x229
    2c48:	0000038c 	syscall	0xe
    2c4c:	00023417 	0x23417
    2c50:	0003d000 	sll	k0,v1,0x0
    2c54:	02081800 	0x2081800
    2c58:	19080000 	0x19080000
    2c5c:	80000b80 	lb	zero,2944(zero)
    2c60:	00000a12 	0xa12
    2c64:	000002b6 	tne	zero,zero,0xa
    2c68:	0254011a 	0x254011a
    2c6c:	19000081 	blez	t0,2e74 <ABIFlags_flags2+0x2e60>
    2c70:	80000b90 	lb	zero,2960(zero)
    2c74:	00000a27 	0xa27
    2c78:	000002cf 	sync	0xb
    2c7c:	0255011a 	0x255011a
    2c80:	011a0081 	0x11a0081
    2c84:	00310154 	0x310154
    2c88:	000bdc19 	0xbdc19
    2c8c:	000a2780 	sll	a0,t2,0x1e
    2c90:	0002ed00 	sll	sp,v0,0x14
    2c94:	56011a00 	bnel	s0,at,9498 <ABIFlags_flags2+0x9484>
    2c98:	011a3801 	0x11a3801
    2c9c:	68910255 	0x68910255
    2ca0:	0154011a 	0x154011a
    2ca4:	ec190031 	swc3	$25,49(zero)
    2ca8:	1280000b 	beqz	s4,2cd8 <ABIFlags_flags2+0x2cc4>
    2cac:	0100000a 	movz	zero,t0,zero
    2cb0:	1a000003 	blez	s0,2cc0 <ABIFlags_flags2+0x2cac>
    2cb4:	80025401 	lb	v0,21505(zero)
    2cb8:	fc1b0000 	sdc3	$27,0(zero)
    2cbc:	2780000b 	addiu	zero,gp,11
    2cc0:	1a00000a 	blez	s0,2cec <ABIFlags_flags2+0x2cd8>
    2cc4:	80025501 	lb	v0,21761(zero)
    2cc8:	54011a00 	bnel	zero,at,94cc <ABIFlags_flags2+0x94b8>
    2ccc:	00003101 	0x3101
    2cd0:	0000910c 	syscall	0x244
    2cd4:	00032800 	sll	a1,v1,0x0
    2cd8:	00881c00 	0x881c00
    2cdc:	37010000 	ori	at,t8,0x0
    2ce0:	08831d00 	j	20c7400 <__memory_size+0x20a7c00>
    2ce4:	60010000 	0x60010000
    2ce8:	80000c14 	lb	zero,3092(zero)
    2cec:	00000008 	jr	zero
    2cf0:	038a9c01 	0x38a9c01
    2cf4:	701e0000 	madd	zero,s8
    2cf8:	01006572 	tlt	t0,zero,0x195
    2cfc:	00009860 	0x9860
    2d00:	0003ef00 	sll	sp,v1,0x1c
    2d04:	04f41f00 	0x4f41f00
    2d08:	60010000 	0x60010000
    2d0c:	000000c0 	ehb
    2d10:	00000410 	0x410
    2d14:	0008db1f 	0x8db1f
    2d18:	98600100 	lwr	zero,256(v1)
    2d1c:	31000000 	andi	zero,t0,0x0
    2d20:	20000004 	addi	zero,zero,4
    2d24:	80000c1c 	lb	zero,3100(zero)
    2d28:	0000024f 	sync	0x9
    2d2c:	0356011a 	0x356011a
    2d30:	1a5601f3 	0x1a5601f3
    2d34:	f3035501 	0xf3035501
    2d38:	011a5501 	0x11a5501
    2d3c:	01f30354 	0x1f30354
    2d40:	21000054 	addi	zero,t0,84
    2d44:	000008c9 	0x8c9
    2d48:	00332f01 	0x332f01
    2d4c:	f2010000 	0xf2010000
    2d50:	0f000003 	jal	c00000c <__memory_size+0xbfe080c>
    2d54:	00787463 	0x787463
    2d58:	03f22f01 	0x3f22f01
    2d5c:	d1120000 	0xd1120000
    2d60:	01000007 	srav	zero,zero,t0
    2d64:	0000c031 	tgeu	zero,zero,0x300
    2d68:	09651200 	j	5944800 <__memory_size+0x5925000>
    2d6c:	32010000 	andi	at,s0,0x0
    2d70:	000000c0 	ehb
    2d74:	00096a12 	0x96a12
    2d78:	c0330100 	ll	s3,256(at)
    2d7c:	12000000 	beqz	s0,2d80 <ABIFlags_flags2+0x2d6c>
    2d80:	0000096f 	0x96f
    2d84:	00c03401 	0xc03401
    2d88:	6f110000 	0x6f110000
    2d8c:	35010070 	ori	at,t0,0x70
    2d90:	000000c0 	ehb
    2d94:	0008b812 	0x8b812
    2d98:	c0360100 	ll	s6,256(at)
    2d9c:	12000000 	beqz	s0,2da0 <ABIFlags_flags2+0x2d8c>
    2da0:	000008bd 	0x8bd
    2da4:	00c03701 	0xc03701
    2da8:	06000000 	bltz	s0,2dac <ABIFlags_flags2+0x2d98>
    2dac:	0000cb04 	0xcb04
    2db0:	09432200 	j	50c8800 <__memory_size+0x50a9000>
    2db4:	67010000 	0x67010000
    2db8:	80000c1c 	lb	zero,3100(zero)
    2dbc:	000005f0 	tge	zero,zero,0x17
    2dc0:	09fc9c01 	j	7f27004 <__memory_size+0x7f07804>
    2dc4:	631e0000 	0x631e0000
    2dc8:	01007874 	teq	t0,zero,0x1e1
    2dcc:	0003f267 	0x3f267
    2dd0:	00045200 	sll	t2,a0,0x8
    2dd4:	09391f00 	j	4e47c00 <__memory_size+0x4e28400>
    2dd8:	67010000 	0x67010000
    2ddc:	00000033 	tltu	zero,zero
    2de0:	000006e6 	0x6e6
    2de4:	00038a23 	0x38a23
    2de8:	000d2000 	sll	a0,t5,0x0
    2dec:	00003480 	sll	a2,zero,0x12
    2df0:	83910100 	lb	s1,256(gp)
    2df4:	15000004 	bnez	t0,2e08 <ABIFlags_flags2+0x2df4>
    2df8:	0000039a 	0x39a
    2dfc:	000008fb 	0x8fb
    2e00:	000d2024 	and	a0,zero,t5
    2e04:	00003480 	sll	a2,zero,0x12
    2e08:	03a52500 	0x3a52500
    2e0c:	54010000 	bnel	zero,at,2e10 <ABIFlags_flags2+0x2dfc>
    2e10:	0003b025 	or	s6,zero,v1
    2e14:	25550100 	addiu	s5,t2,256
    2e18:	000003bb 	0x3bb
    2e1c:	c6255601 	lwc1	$f5,22017(s1)
    2e20:	01000003 	0x1000003
    2e24:	03d12557 	0x3d12557
    2e28:	69010000 	0x69010000
    2e2c:	0003db25 	0x3db25
    2e30:	25520100 	addiu	s2,t2,256
    2e34:	000003e6 	0x3e6
    2e38:	00005301 	0x5301
    2e3c:	000c9819 	0xc9819
    2e40:	00032880 	sll	a1,v1,0x2
    2e44:	00049600 	sll	s2,a0,0x18
    2e48:	56011a00 	bnel	s0,at,964c <ABIFlags_flags2+0x9638>
    2e4c:	26003001 	addiu	zero,s0,12289
    2e50:	80000cc8 	lb	zero,3272(zero)
    2e54:	00000a27 	0xa27
    2e58:	000d0019 	multu	zero,t5
    2e5c:	000a4680 	sll	t0,t2,0x1a
    2e60:	0004b300 	sll	s6,a0,0xc
    2e64:	54011a00 	bnel	zero,at,9668 <ABIFlags_flags2+0x9654>
    2e68:	00008002 	srl	s0,zero,0x0
    2e6c:	000d1826 	xor	v1,zero,t5
    2e70:	000a5b80 	sll	t3,t2,0xe
    2e74:	0ebc1900 	jal	af06400 <__memory_size+0xaee6c00>
    2e78:	03288000 	0x3288000
    2e7c:	04d30000 	bgezall	a2,2e80 <ABIFlags_flags2+0x2e6c>
    2e80:	011a0000 	0x11a0000
    2e84:	c0030556 	ll	v1,1366(zero)
    2e88:	00800019 	multu	a0,zero
    2e8c:	000ed819 	0xed819
    2e90:	00032880 	sll	a1,v1,0x2
    2e94:	0004f800 	sll	ra,a0,0x0
    2e98:	56011a00 	bnel	s0,at,969c <ABIFlags_flags2+0x9688>
    2e9c:	19f40305 	0x19f40305
    2ea0:	011a8000 	0x11a8000
    2ea4:	1a300155 	0x1a300155
    2ea8:	03055401 	0x3055401
    2eac:	800019ec 	lb	zero,6636(zero)
    2eb0:	0eec1900 	jal	bb06400 <__memory_size+0xbae6c00>
    2eb4:	03288000 	0x3288000
    2eb8:	05180000 	0x5180000
    2ebc:	011a0000 	0x11a0000
    2ec0:	f4030556 	sdc1	$f3,1366(zero)
    2ec4:	1a800019 	blez	s4,2f2c <ABIFlags_flags2+0x2f18>
    2ec8:	03055401 	0x3055401
    2ecc:	800019f8 	lb	zero,6648(zero)
    2ed0:	0f001900 	jal	c006400 <__memory_size+0xbfe6c00>
    2ed4:	03288000 	0x3288000
    2ed8:	05380000 	0x5380000
    2edc:	011a0000 	0x11a0000
    2ee0:	f4030556 	sdc1	$f3,1366(zero)
    2ee4:	1a800019 	blez	s4,2f4c <ABIFlags_flags2+0x2f38>
    2ee8:	03055401 	0x3055401
    2eec:	80001a00 	lb	zero,6656(zero)
    2ef0:	0f141900 	jal	c506400 <__memory_size+0xc4e6c00>
    2ef4:	03288000 	0x3288000
    2ef8:	05580000 	0x5580000
    2efc:	011a0000 	0x11a0000
    2f00:	c0030556 	ll	v1,1366(zero)
    2f04:	1a800019 	blez	s4,2f6c <ABIFlags_flags2+0x2f58>
    2f08:	03055401 	0x3055401
    2f0c:	80001a08 	lb	zero,6664(zero)
    2f10:	0f281900 	jal	ca06400 <__memory_size+0xc9e6c00>
    2f14:	03288000 	0x3288000
    2f18:	05780000 	0x5780000
    2f1c:	011a0000 	0x11a0000
    2f20:	f4030556 	sdc1	$f3,1366(zero)
    2f24:	1a800019 	blez	s4,2f8c <ABIFlags_flags2+0x2f78>
    2f28:	03055401 	0x3055401
    2f2c:	80001a10 	lb	zero,6672(zero)
    2f30:	0f3c1900 	jal	cf06400 <__memory_size+0xcee6c00>
    2f34:	03288000 	0x3288000
    2f38:	05980000 	0x5980000
    2f3c:	011a0000 	0x11a0000
    2f40:	f4030556 	sdc1	$f3,1366(zero)
    2f44:	1a800019 	blez	s4,2fac <ABIFlags_flags2+0x2f98>
    2f48:	03055401 	0x3055401
    2f4c:	80001a18 	lb	zero,6680(zero)
    2f50:	0f501900 	jal	d406400 <__memory_size+0xd3e6c00>
    2f54:	03288000 	0x3288000
    2f58:	05b80000 	0x5b80000
    2f5c:	011a0000 	0x11a0000
    2f60:	f4030556 	sdc1	$f3,1366(zero)
    2f64:	1a800019 	blez	s4,2fcc <ABIFlags_flags2+0x2fb8>
    2f68:	03055401 	0x3055401
    2f6c:	80001a20 	lb	zero,6688(zero)
    2f70:	0f641900 	jal	d906400 <__memory_size+0xd8e6c00>
    2f74:	03288000 	0x3288000
    2f78:	05d80000 	0x5d80000
    2f7c:	011a0000 	0x11a0000
    2f80:	c0030556 	ll	v1,1366(zero)
    2f84:	1a800019 	blez	s4,2fec <ABIFlags_flags2+0x2fd8>
    2f88:	03055401 	0x3055401
    2f8c:	80001a28 	lb	zero,6696(zero)
    2f90:	0f781900 	jal	de06400 <__memory_size+0xdde6c00>
    2f94:	03288000 	0x3288000
    2f98:	05f80000 	0x5f80000
    2f9c:	011a0000 	0x11a0000
    2fa0:	f4030556 	sdc1	$f3,1366(zero)
    2fa4:	1a800019 	blez	s4,300c <ABIFlags_flags2+0x2ff8>
    2fa8:	03055401 	0x3055401
    2fac:	80001a30 	lb	zero,6704(zero)
    2fb0:	0f8c1900 	jal	e306400 <__memory_size+0xe2e6c00>
    2fb4:	03288000 	0x3288000
    2fb8:	06180000 	0x6180000
    2fbc:	011a0000 	0x11a0000
    2fc0:	f4030556 	sdc1	$f3,1366(zero)
    2fc4:	1a800019 	blez	s4,302c <ABIFlags_flags2+0x3018>
    2fc8:	03055401 	0x3055401
    2fcc:	80001a38 	lb	zero,6712(zero)
    2fd0:	0fa01900 	jal	e806400 <__memory_size+0xe7e6c00>
    2fd4:	03288000 	0x3288000
    2fd8:	06380000 	0x6380000
    2fdc:	011a0000 	0x11a0000
    2fe0:	f4030556 	sdc1	$f3,1366(zero)
    2fe4:	1a800019 	blez	s4,304c <ABIFlags_flags2+0x3038>
    2fe8:	03055401 	0x3055401
    2fec:	80001a40 	lb	zero,6720(zero)
    2ff0:	0fb41900 	jal	ed06400 <__memory_size+0xece6c00>
    2ff4:	03288000 	0x3288000
    2ff8:	06580000 	0x6580000
    2ffc:	011a0000 	0x11a0000
    3000:	c0030556 	ll	v1,1366(zero)
    3004:	1a800019 	blez	s4,306c <ABIFlags_flags2+0x3058>
    3008:	03055401 	0x3055401
    300c:	80001a48 	lb	zero,6728(zero)
    3010:	0fc81900 	jal	f206400 <__memory_size+0xf1e6c00>
    3014:	03288000 	0x3288000
    3018:	06780000 	0x6780000
    301c:	011a0000 	0x11a0000
    3020:	f4030556 	sdc1	$f3,1366(zero)
    3024:	1a800019 	blez	s4,308c <ABIFlags_flags2+0x3078>
    3028:	03055401 	0x3055401
    302c:	80001a50 	lb	zero,6736(zero)
    3030:	0fdc1900 	jal	f706400 <__memory_size+0xf6e6c00>
    3034:	03288000 	0x3288000
    3038:	06980000 	0x6980000
    303c:	011a0000 	0x11a0000
    3040:	f4030556 	sdc1	$f3,1366(zero)
    3044:	1a800019 	blez	s4,30ac <ABIFlags_flags2+0x3098>
    3048:	03055401 	0x3055401
    304c:	80001a58 	lb	zero,6744(zero)
    3050:	0ff01900 	jal	fc06400 <__memory_size+0xfbe6c00>
    3054:	03288000 	0x3288000
    3058:	06b80000 	0x6b80000
    305c:	011a0000 	0x11a0000
    3060:	f4030556 	sdc1	$f3,1366(zero)
    3064:	1a800019 	blez	s4,30cc <ABIFlags_flags2+0x30b8>
    3068:	03055401 	0x3055401
    306c:	80001a60 	lb	zero,6752(zero)
    3070:	10041900 	beq	zero,a0,9474 <ABIFlags_flags2+0x9460>
    3074:	03288000 	0x3288000
    3078:	06d80000 	0x6d80000
    307c:	011a0000 	0x11a0000
    3080:	c0030556 	ll	v1,1366(zero)
    3084:	1a800019 	blez	s4,30ec <ABIFlags_flags2+0x30d8>
    3088:	03055401 	0x3055401
    308c:	80001a68 	lb	zero,6760(zero)
    3090:	10181900 	beq	zero,t8,9494 <ABIFlags_flags2+0x9480>
    3094:	03288000 	0x3288000
    3098:	06f80000 	0x6f80000
    309c:	011a0000 	0x11a0000
    30a0:	f4030556 	sdc1	$f3,1366(zero)
    30a4:	1a800019 	blez	s4,310c <ABIFlags_flags2+0x30f8>
    30a8:	03055401 	0x3055401
    30ac:	80001a70 	lb	zero,6768(zero)
    30b0:	102c1900 	beq	at,t4,94b4 <ABIFlags_flags2+0x94a0>
    30b4:	03288000 	0x3288000
    30b8:	07180000 	0x7180000
    30bc:	011a0000 	0x11a0000
    30c0:	f4030556 	sdc1	$f3,1366(zero)
    30c4:	1a800019 	blez	s4,312c <ABIFlags_flags2+0x3118>
    30c8:	03055401 	0x3055401
    30cc:	80001a78 	lb	zero,6776(zero)
    30d0:	10401900 	beqz	v0,94d4 <ABIFlags_flags2+0x94c0>
    30d4:	03288000 	0x3288000
    30d8:	07380000 	0x7380000
    30dc:	011a0000 	0x11a0000
    30e0:	f4030556 	sdc1	$f3,1366(zero)
    30e4:	1a800019 	blez	s4,314c <ABIFlags_flags2+0x3138>
    30e8:	03055401 	0x3055401
    30ec:	80001a80 	lb	zero,6784(zero)
    30f0:	10541900 	beq	v0,s4,94f4 <ABIFlags_flags2+0x94e0>
    30f4:	03288000 	0x3288000
    30f8:	07580000 	0x7580000
    30fc:	011a0000 	0x11a0000
    3100:	c0030556 	ll	v1,1366(zero)
    3104:	1a800019 	blez	s4,316c <ABIFlags_flags2+0x3158>
    3108:	03055401 	0x3055401
    310c:	80001a88 	lb	zero,6792(zero)
    3110:	10681900 	beq	v1,t0,9514 <ABIFlags_flags2+0x9500>
    3114:	03288000 	0x3288000
    3118:	07780000 	0x7780000
    311c:	011a0000 	0x11a0000
    3120:	f4030556 	sdc1	$f3,1366(zero)
    3124:	1a800019 	blez	s4,318c <ABIFlags_flags2+0x3178>
    3128:	03055401 	0x3055401
    312c:	80001a90 	lb	zero,6800(zero)
    3130:	107c1900 	beq	v1,gp,9534 <ABIFlags_flags2+0x9520>
    3134:	03288000 	0x3288000
    3138:	07980000 	0x7980000
    313c:	011a0000 	0x11a0000
    3140:	f4030556 	sdc1	$f3,1366(zero)
    3144:	1a800019 	blez	s4,31ac <ABIFlags_flags2+0x3198>
    3148:	03055401 	0x3055401
    314c:	80001a98 	lb	zero,6808(zero)
    3150:	10901900 	beq	a0,s0,9554 <ABIFlags_flags2+0x9540>
    3154:	03288000 	0x3288000
    3158:	07b80000 	0x7b80000
    315c:	011a0000 	0x11a0000
    3160:	f4030556 	sdc1	$f3,1366(zero)
    3164:	1a800019 	blez	s4,31cc <ABIFlags_flags2+0x31b8>
    3168:	03055401 	0x3055401
    316c:	80001aa0 	lb	zero,6816(zero)
    3170:	10a41900 	beq	a1,a0,9574 <ABIFlags_flags2+0x9560>
    3174:	03288000 	0x3288000
    3178:	07d80000 	0x7d80000
    317c:	011a0000 	0x11a0000
    3180:	c0030556 	ll	v1,1366(zero)
    3184:	1a800019 	blez	s4,31ec <ABIFlags_flags2+0x31d8>
    3188:	03055401 	0x3055401
    318c:	80001aa8 	lb	zero,6824(zero)
    3190:	10b81900 	beq	a1,t8,9594 <ABIFlags_flags2+0x9580>
    3194:	03288000 	0x3288000
    3198:	07f80000 	0x7f80000
    319c:	011a0000 	0x11a0000
    31a0:	f4030556 	sdc1	$f3,1366(zero)
    31a4:	1a800019 	blez	s4,320c <ABIFlags_flags2+0x31f8>
    31a8:	03055401 	0x3055401
    31ac:	80001ab0 	lb	zero,6832(zero)
    31b0:	10cc1900 	beq	a2,t4,95b4 <ABIFlags_flags2+0x95a0>
    31b4:	03288000 	0x3288000
    31b8:	08180000 	j	600000 <__memory_size+0x5e0800>
    31bc:	011a0000 	0x11a0000
    31c0:	f4030556 	sdc1	$f3,1366(zero)
    31c4:	1a800019 	blez	s4,322c <ABIFlags_flags2+0x3218>
    31c8:	03055401 	0x3055401
    31cc:	80001ab8 	lb	zero,6840(zero)
    31d0:	10e01900 	beqz	a3,95d4 <ABIFlags_flags2+0x95c0>
    31d4:	03288000 	0x3288000
    31d8:	08380000 	j	e00000 <__memory_size+0xde0800>
    31dc:	011a0000 	0x11a0000
    31e0:	f4030556 	sdc1	$f3,1366(zero)
    31e4:	1a800019 	blez	s4,324c <ABIFlags_flags2+0x3238>
    31e8:	03055401 	0x3055401
    31ec:	80001ac0 	lb	zero,6848(zero)
    31f0:	10f41900 	beq	a3,s4,95f4 <ABIFlags_flags2+0x95e0>
    31f4:	03288000 	0x3288000
    31f8:	08580000 	j	1600000 <__memory_size+0x15e0800>
    31fc:	011a0000 	0x11a0000
    3200:	c0030556 	ll	v1,1366(zero)
    3204:	1a800019 	blez	s4,326c <ABIFlags_flags2+0x3258>
    3208:	03055401 	0x3055401
    320c:	80001ac8 	lb	zero,6856(zero)
    3210:	11081900 	beq	t0,t0,9614 <ABIFlags_flags2+0x9600>
    3214:	03288000 	0x3288000
    3218:	08780000 	j	1e00000 <__memory_size+0x1de0800>
    321c:	011a0000 	0x11a0000
    3220:	f4030556 	sdc1	$f3,1366(zero)
    3224:	1a800019 	blez	s4,328c <ABIFlags_flags2+0x3278>
    3228:	03055401 	0x3055401
    322c:	80001ad0 	lb	zero,6864(zero)
    3230:	111c1900 	beq	t0,gp,9634 <ABIFlags_flags2+0x9620>
    3234:	03288000 	0x3288000
    3238:	08980000 	j	2600000 <__memory_size+0x25e0800>
    323c:	011a0000 	0x11a0000
    3240:	f4030556 	sdc1	$f3,1366(zero)
    3244:	1a800019 	blez	s4,32ac <ABIFlags_flags2+0x3298>
    3248:	03055401 	0x3055401
    324c:	80001ad8 	lb	zero,6872(zero)
    3250:	11301900 	beq	t1,s0,9654 <ABIFlags_flags2+0x9640>
    3254:	03288000 	0x3288000
    3258:	08b80000 	j	2e00000 <__memory_size+0x2de0800>
    325c:	011a0000 	0x11a0000
    3260:	f4030556 	sdc1	$f3,1366(zero)
    3264:	1a800019 	blez	s4,32cc <ABIFlags_flags2+0x32b8>
    3268:	03055401 	0x3055401
    326c:	80001ae0 	lb	zero,6880(zero)
    3270:	11441900 	beq	t2,a0,9674 <ABIFlags_flags2+0x9660>
    3274:	03288000 	0x3288000
    3278:	08d80000 	j	3600000 <__memory_size+0x35e0800>
    327c:	011a0000 	0x11a0000
    3280:	c0030556 	ll	v1,1366(zero)
    3284:	1a800019 	blez	s4,32ec <ABIFlags_flags2+0x32d8>
    3288:	03055401 	0x3055401
    328c:	80001ae8 	lb	zero,6888(zero)
    3290:	11581900 	beq	t2,t8,9694 <ABIFlags_flags2+0x9680>
    3294:	03288000 	0x3288000
    3298:	08f80000 	j	3e00000 <__memory_size+0x3de0800>
    329c:	011a0000 	0x11a0000
    32a0:	f4030556 	sdc1	$f3,1366(zero)
    32a4:	1a800019 	blez	s4,330c <ABIFlags_flags2+0x32f8>
    32a8:	03055401 	0x3055401
    32ac:	80001af0 	lb	zero,6896(zero)
    32b0:	116c1900 	beq	t3,t4,96b4 <ABIFlags_flags2+0x96a0>
    32b4:	03288000 	0x3288000
    32b8:	09180000 	j	4600000 <__memory_size+0x45e0800>
    32bc:	011a0000 	0x11a0000
    32c0:	c0030556 	ll	v1,1366(zero)
    32c4:	1a800019 	blez	s4,332c <ABIFlags_flags2+0x3318>
    32c8:	03055401 	0x3055401
    32cc:	80001af8 	lb	zero,6904(zero)
    32d0:	11801900 	beqz	t4,96d4 <ABIFlags_flags2+0x96c0>
    32d4:	03288000 	0x3288000
    32d8:	09380000 	j	4e00000 <__memory_size+0x4de0800>
    32dc:	011a0000 	0x11a0000
    32e0:	c0030556 	ll	v1,1366(zero)
    32e4:	1a800019 	blez	s4,334c <ABIFlags_flags2+0x3338>
    32e8:	03055401 	0x3055401
    32ec:	80001b00 	lb	zero,6912(zero)
    32f0:	11941900 	beq	t4,s4,96f4 <ABIFlags_flags2+0x96e0>
    32f4:	03288000 	0x3288000
    32f8:	09580000 	j	5600000 <__memory_size+0x55e0800>
    32fc:	011a0000 	0x11a0000
    3300:	c0030556 	ll	v1,1366(zero)
    3304:	1a800019 	blez	s4,336c <ABIFlags_flags2+0x3358>
    3308:	03055401 	0x3055401
    330c:	80001b0c 	lb	zero,6924(zero)
    3310:	11a81900 	beq	t5,t0,9714 <ABIFlags_flags2+0x9700>
    3314:	024f8000 	0x24f8000
    3318:	09780000 	j	5e00000 <__memory_size+0x5de0800>
    331c:	011a0000 	0x11a0000
    3320:	c0030556 	ll	v1,1366(zero)
    3324:	1a800019 	blez	s4,338c <ABIFlags_flags2+0x3378>
    3328:	03055401 	0x3055401
    332c:	80001b18 	lb	zero,6936(zero)
    3330:	11bc1900 	beq	t5,gp,9734 <ABIFlags_flags2+0x9720>
    3334:	024f8000 	0x24f8000
    3338:	09980000 	j	6600000 <__memory_size+0x65e0800>
    333c:	011a0000 	0x11a0000
    3340:	c0030556 	ll	v1,1366(zero)
    3344:	1a800019 	blez	s4,33ac <ABIFlags_flags2+0x3398>
    3348:	03055401 	0x3055401
    334c:	80001b24 	lb	zero,6948(zero)
    3350:	11d01900 	beq	t6,s0,9754 <ABIFlags_flags2+0x9740>
    3354:	024f8000 	0x24f8000
    3358:	09b80000 	j	6e00000 <__memory_size+0x6de0800>
    335c:	011a0000 	0x11a0000
    3360:	c0030556 	ll	v1,1366(zero)
    3364:	1a800019 	blez	s4,33cc <ABIFlags_flags2+0x33b8>
    3368:	03055401 	0x3055401
    336c:	80001b30 	lb	zero,6960(zero)
    3370:	11e41900 	beq	t7,a0,9774 <ABIFlags_flags2+0x9760>
    3374:	024f8000 	0x24f8000
    3378:	09d80000 	j	7600000 <__memory_size+0x75e0800>
    337c:	011a0000 	0x11a0000
    3380:	c0030556 	ll	v1,1366(zero)
    3384:	1a800019 	blez	s4,33ec <ABIFlags_flags2+0x33d8>
    3388:	03055401 	0x3055401
    338c:	80001b3c 	lb	zero,6972(zero)
    3390:	11ec1900 	beq	t7,t4,9794 <ABIFlags_flags2+0x9780>
    3394:	0a668000 	j	99a0000 <__memory_size+0x9980800>
    3398:	09ec0000 	j	7b00000 <__memory_size+0x7ae0800>
    339c:	011a0000 	0x11a0000
    33a0:	00800254 	0x800254
    33a4:	11f41b00 	beq	t7,s4,9fa8 <ABIFlags_flags2+0x9f94>
    33a8:	0a7b8000 	j	9ee0000 <__memory_size+0x9ec0800>
    33ac:	011a0000 	0x11a0000
    33b0:	00320154 	0x320154
    33b4:	00910c00 	0x910c00
    33b8:	0a070000 	j	81c0000 <__memory_size+0x81a0800>
    33bc:	00270000 	0x270000
    33c0:	0007b628 	0x7b628
    33c4:	fc2b0100 	sdc3	$11,256(at)
    33c8:	29000009 	slti	zero,t0,9
    33cc:	000008c2 	srl	at,zero,0x3
    33d0:	00212106 	0x212106
    33d4:	0a270000 	j	89c0000 <__memory_size+0x89a0800>
    33d8:	982a0000 	lwr	t2,0(at)
    33dc:	00000000 	nop
    33e0:	0003fc29 	0x3fc29
    33e4:	33bd0700 	andi	sp,sp,0x700
    33e8:	46000000 	add.s	$f0,$f0,$f0
    33ec:	2a00000a 	slti	zero,s0,10
    33f0:	00000033 	tltu	zero,zero
    33f4:	0000a32a 	0xa32a
    33f8:	00212a00 	0x212a00
    33fc:	29000000 	slti	zero,t0,0
    3400:	0000088a 	0x88a
    3404:	00332701 	0x332701
    3408:	0a5b0000 	j	96c0000 <__memory_size+0x96a0800>
    340c:	f22a0000 	0xf22a0000
    3410:	00000003 	sra	zero,zero,0x0
    3414:	0008082b 	sltu	at,zero,t0
    3418:	33260100 	andi	a2,t9,0x100
    341c:	29000000 	slti	zero,t0,0
    3420:	00000933 	tltu	zero,zero,0x24
    3424:	00aa2801 	0xaa2801
    3428:	0a7b0000 	j	9ec0000 <__memory_size+0x9ea0800>
    342c:	f22a0000 	0xf22a0000
    3430:	00000003 	sra	zero,zero,0x0
    3434:	0007b02c 	0x7b02c
    3438:	2a110700 	slti	s1,s0,1792
    343c:	00000033 	tltu	zero,zero
    3440:	00b00000 	0xb00000
    3444:	00020000 	sll	zero,v0,0x0
    3448:	00000cc3 	sra	at,zero,0x13
    344c:	0ddd0104 	jal	7740410 <__memory_size+0x7720c10>
    3450:	120c0000 	beq	s0,t4,3454 <ABIFlags_flags2+0x3440>
    3454:	142c8000 	bne	at,t4,fffe3458 <__flash_start+0x403e3458>
    3458:	752f8000 	jalx	4be0000 <__memory_size+0x4bc0800>
    345c:	2f726573 	sltiu	s2,k1,25971
    3460:	7370696d 	s16sdi	xr5,k1,52,
    3464:	2f747773 	sltiu	s4,k1,30579
    3468:	2f746967 	sltiu	s4,k1,26983
    346c:	6c77656e 	0x6c77656e
    3470:	6c2f6269 	0x6c2f6269
    3474:	6c676269 	0x6c676269
    3478:	2f73736f 	sltiu	s3,k1,29551
    347c:	7370696d 	s16sdi	xr5,k1,52,
    3480:	70696d2f 	0x70696d2f
    3484:	78655f73 	0x78655f73
    3488:	5f747063 	0x5f747063
    348c:	69676572 	0x69676572
    3490:	72657473 	d32sar	xr1,xr13,xr5,xr9,9
    3494:	2f00532e 	sltiu	zero,t8,21294
    3498:	72657375 	q16slr	xr13,xr12,xr5,xr9,9
    349c:	70696d2f 	0x70696d2f
    34a0:	74777373 	jalx	1ddcdcc <__memory_size+0x1dbd5cc>
    34a4:	6a626f2f 	0x6a626f2f
    34a8:	6f72632d 	0x6f72632d
    34ac:	6d2d7373 	0x6d2d7373
    34b0:	2d737069 	sltiu	s3,t3,28777
    34b4:	2d69746d 	sltiu	t1,t3,29805
    34b8:	2f666c65 	sltiu	a2,k1,27749
    34bc:	6c77656e 	0x6c77656e
    34c0:	6d2f6269 	0x6d2f6269
    34c4:	2d737069 	sltiu	s3,t3,28777
    34c8:	2d69746d 	sltiu	t1,t3,29805
    34cc:	2f666c65 	sltiu	a2,k1,27749
    34d0:	732f6c65 	s8sdi	xr1,t9,-37,ptn3
    34d4:	6c2f666f 	0x6c2f666f
    34d8:	6c676269 	0x6c676269
    34dc:	2f73736f 	sltiu	s3,k1,29551
    34e0:	7370696d 	s16sdi	xr5,k1,52,
    34e4:	554e4700 	bnel	t2,t6,150e8 <ABIFlags_flags2+0x150d4>
    34e8:	20534120 	addi	s3,v0,16672
    34ec:	34322e32 	ori	s2,at,0x2e32
    34f0:	0030392e 	0x30392e
    34f4:	006a8001 	0x6a8001
    34f8:	00040000 	sll	zero,a0,0x0
    34fc:	00000cd7 	0xcd7
    3500:	01220104 	0x1220104
    3504:	8e010000 	lw	at,0(s0)
    3508:	d4000009 	ldc1	$f0,9(zero)
    350c:	0200000e 	0x200000e
    3510:	00ab0504 	0xab0504
    3514:	04020000 	bltzl	zero,3518 <ABIFlags_flags2+0x3504>
    3518:	00011007 	srav	v0,at,zero
    351c:	05040300 	0x5040300
    3520:	00746e69 	0x746e69
    3524:	cc060102 	pref	0x6,258(zero)
    3528:	02000001 	movf	zero,s0,$fcc0
    352c:	01ca0801 	0x1ca0801
    3530:	02020000 	0x2020000
    3534:	00020105 	0x20105
    3538:	07020200 	bltzl	t8,3d3c <ABIFlags_flags2+0x3d28>
    353c:	000000b4 	teq	zero,zero,0x2
    3540:	a6050802 	sh	a1,2050(s0)
    3544:	02000000 	0x2000000
    3548:	010b0708 	0x10b0708
    354c:	04020000 	bltzl	zero,3550 <ABIFlags_flags2+0x353c>
    3550:	00011507 	0x11507
    3554:	07040200 	0x7040200
    3558:	00000217 	0x217
    355c:	d3080102 	0xd3080102
    3560:	00000001 	movf	zero,zero,$fcc0
    3564:	0000016a 	0x16a
    3568:	0cfb0004 	jal	3ec0010 <__memory_size+0x3ea0810>
    356c:	01040000 	0x1040000
    3570:	000006e1 	0x6e1
    3574:	0009d301 	0x9d301
    3578:	00144800 	sll	t1,s4,0x0
    357c:	00005080 	sll	t2,zero,0x2
    3580:	000ef100 	sll	s8,t6,0x4
    3584:	06010200 	bgez	s0,3d88 <ABIFlags_flags2+0x3d74>
    3588:	000001cc 	syscall	0x7
    358c:	ca080102 	lwc2	$8,258(s0)
    3590:	02000001 	movf	zero,s0,$fcc0
    3594:	02010502 	0x2010502
    3598:	02020000 	0x2020000
    359c:	0000b407 	0xb407
    35a0:	07c70300 	aclr	0x0,768(s8)
    35a4:	37020000 	ori	v0,t8,0x0
    35a8:	00000048 	0x48
    35ac:	ab050402 	swl	a1,1026(t8)
    35b0:	03000000 	0x3000000
    35b4:	000008a8 	0x8a8
    35b8:	005a3802 	0x5a3802
    35bc:	04020000 	bltzl	zero,35c0 <ABIFlags_flags2+0x35ac>
    35c0:	00011007 	srav	v0,at,zero
    35c4:	05080200 	tgei	t0,512
    35c8:	000000a6 	0xa6
    35cc:	0b070802 	j	c1c2008 <__memory_size+0xc1a2808>
    35d0:	03000001 	movf	zero,t8,$fcc0
    35d4:	000007c9 	0x7c9
    35d8:	003d4103 	0x3d4103
    35dc:	aa030000 	swl	v1,0(s0)
    35e0:	03000008 	jr	t8
    35e4:	00004f42 	srl	t1,zero,0x1d
    35e8:	05040400 	0x5040400
    35ec:	00746e69 	0x746e69
    35f0:	15070402 	bne	t0,a3,45fc <ABIFlags_flags2+0x45e8>
    35f4:	02000001 	movf	zero,s0,$fcc0
    35f8:	02170704 	0x2170704
    35fc:	04050000 	0x4050000
    3600:	d3080102 	0xd3080102
    3604:	06000001 	bltz	s0,360c <ABIFlags_flags2+0x35f8>
    3608:	000003fc 	0x3fc
    360c:	006f3e01 	0x6f3e01
    3610:	14480000 	bne	v0,t0,3614 <ABIFlags_flags2+0x3600>
    3614:	00508000 	0x508000
    3618:	9c010000 	0x9c010000
    361c:	00000157 	0x157
    3620:	00646607 	0x646607
    3624:	006f3e01 	0x6f3e01
    3628:	090e0000 	j	4380000 <__memory_size+0x4360800>
    362c:	18080000 	0x18080000
    3630:	0100000a 	movz	zero,t0,zero
    3634:	00009a3e 	0x9a3e
    3638:	00092f00 	sll	a1,t1,0x1c
    363c:	04ec0800 	teqi	a3,2048
    3640:	3e010000 	0x3e010000
    3644:	0000006f 	0x6f
    3648:	00000950 	0x950
    364c:	0007d109 	0x7d109
    3650:	6f400100 	0x6f400100
    3654:	01000000 	0x1000000
    3658:	09650954 	j	5942550 <__memory_size+0x5922d50>
    365c:	41010000 	mftc0	zero,c0_random
    3660:	0000009a 	0x9a
    3664:	6a095501 	0x6a095501
    3668:	01000009 	jalr	zero,t0
    366c:	00006f42 	srl	t5,zero,0x1d
    3670:	0a560100 	j	9580400 <__memory_size+0x9560c00>
    3674:	0100706f 	0x100706f
    3678:	00006f43 	sra	t5,zero,0x1d
    367c:	0a690100 	j	9a40400 <__memory_size+0x9a20c00>
    3680:	00746572 	tlt	v1,s4,0x195
    3684:	006f4401 	0x6f4401
    3688:	52010000 	beql	s0,at,368c <ABIFlags_flags2+0x3678>
    368c:	000a0609 	0xa0609
    3690:	6f450100 	0x6f450100
    3694:	01000000 	0x1000000
    3698:	14700b53 	bne	v1,s0,63e8 <ABIFlags_flags2+0x63d4>
    369c:	00148000 	sll	s0,s4,0x0
    36a0:	c9090000 	lwc2	$9,0(t0)
    36a4:	01000009 	jalr	zero,t0
    36a8:	00015750 	0x15750
    36ac:	70910200 	0x70910200
    36b0:	00147c0c 	syscall	0x51f0
    36b4:	00015c80 	sll	t3,at,0x12
    36b8:	0d000000 	jal	4000000 <__memory_size+0x3fe0800>
    36bc:	0000007a 	0x7a
    36c0:	000a100e 	0xa100e
    36c4:	670f0400 	0x670f0400
    36c8:	0f000001 	jal	c000004 <__memory_size+0xbfe0804>
    36cc:	00008504 	0x8504
    36d0:	02140000 	0x2140000
    36d4:	00040000 	sll	zero,a0,0x0
    36d8:	00000dc6 	0xdc6
    36dc:	06e10104 	bgez	s7,3af0 <ABIFlags_flags2+0x3adc>
    36e0:	1f010000 	0x1f010000
    36e4:	9800000a 	lwr	zero,10(zero)
    36e8:	14800014 	bnez	a0,373c <ABIFlags_flags2+0x3728>
    36ec:	1a000000 	blez	s0,36f0 <ABIFlags_flags2+0x36dc>
    36f0:	02000010 	0x2000010
    36f4:	01cc0601 	0x1cc0601
    36f8:	01020000 	0x1020000
    36fc:	0001ca08 	0x1ca08
    3700:	05020200 	bltzl	t0,3f04 <ABIFlags_flags2+0x3ef0>
    3704:	00000201 	0x201
    3708:	b4070202 	0xb4070202
    370c:	03000000 	0x3000000
    3710:	000007c7 	0x7c7
    3714:	00483702 	0x483702
    3718:	04020000 	bltzl	zero,371c <ABIFlags_flags2+0x3708>
    371c:	0000ab05 	0xab05
    3720:	08a80300 	j	2a00c00 <__memory_size+0x29e1400>
    3724:	38020000 	xori	v0,zero,0x0
    3728:	0000005a 	0x5a
    372c:	10070402 	beq	zero,a3,4738 <ABIFlags_flags2+0x4724>
    3730:	02000001 	movf	zero,s0,$fcc0
    3734:	00a60508 	0xa60508
    3738:	08020000 	j	80000 <__memory_size+0x60800>
    373c:	00010b07 	0x10b07
    3740:	07c90300 	tgeiu	s8,768
    3744:	41030000 	mftc0	zero,c0_entrylo1
    3748:	0000003d 	0x3d
    374c:	0008aa03 	sra	s5,t0,0x8
    3750:	4f420300 	lwxc1	$f12,v0(k0)
    3754:	04000000 	bltz	zero,3758 <ABIFlags_flags2+0x3744>
    3758:	6e690504 	0x6e690504
    375c:	04020074 	bltzl	zero,3930 <ABIFlags_flags2+0x391c>
    3760:	00011507 	0x11507
    3764:	092b0300 	j	4ac0c00 <__memory_size+0x4aa1400>
    3768:	29040000 	slti	a0,t0,0
    376c:	0000007a 	0x7a
    3770:	00091c05 	0x91c05
    3774:	5b04a000 	0x5b04a000
    3778:	00000189 	0x189
    377c:	00746106 	0x746106
    3780:	00935d04 	0x935d04
    3784:	06000000 	bltz	s0,3788 <ABIFlags_flags2+0x3774>
    3788:	5e040076 	0x5e040076
    378c:	00000189 	0x189
    3790:	00610604 	0x610604
    3794:	01a05f04 	0x1a05f04
    3798:	060c0000 	teqi	s0,0
    379c:	60040074 	0x60040074
    37a0:	000001b0 	tge	zero,zero,0x6
    37a4:	0073061c 	0x73061c
    37a8:	01b06104 	0x1b06104
    37ac:	063c0000 	0x63c0000
    37b0:	04003274 	bltz	zero,10184 <ABIFlags_flags2+0x10170>
    37b4:	00018962 	0x18962
    37b8:	6b065c00 	0x6b065c00
    37bc:	89630400 	lwl	v1,1024(t3)
    37c0:	64000001 	0x64000001
    37c4:	00706706 	0x706706
    37c8:	00936404 	0x936404
    37cc:	066c0000 	teqi	s3,0
    37d0:	04007073 	bltz	zero,1f9a0 <__memory_size+0x1a0>
    37d4:	00009365 	0x9365
    37d8:	66067000 	0x66067000
    37dc:	66040070 	0x66040070
    37e0:	00000093 	0x93
    37e4:	61720674 	0x61720674
    37e8:	93670400 	lbu	a3,1024(k1)
    37ec:	78000000 	andi.b	$w0,$w0,0x0
    37f0:	63706506 	0x63706506
    37f4:	93680400 	lbu	t0,1024(k1)
    37f8:	7c000000 	ext	zero,zero,0x0,0x1
    37fc:	00092207 	0x92207
    3800:	93690400 	lbu	t1,1024(k1)
    3804:	80000000 	lb	zero,0(zero)
    3808:	00696806 	srlv	t5,t1,v1
    380c:	00936a04 	0x936a04
    3810:	06840000 	0x6840000
    3814:	04006f6c 	bltz	zero,1f5c8 <ABIFlags_flags2+0x1f5b4>
    3818:	0000936b 	0x936b
    381c:	b3078800 	0xb3078800
    3820:	04000008 	bltz	zero,3844 <ABIFlags_flags2+0x3830>
    3824:	0001c06d 	0x1c06d
    3828:	74078c00 	jalx	1e3000 <__memory_size+0x1c3800>
    382c:	04000009 	bltz	zero,3854 <ABIFlags_flags2+0x3840>
    3830:	00007a70 	tge	zero,zero,0x1e9
    3834:	9c079000 	0x9c079000
    3838:	04000008 	bltz	zero,385c <ABIFlags_flags2+0x3848>
    383c:	00007a72 	tlt	zero,zero,0x1e9
    3840:	85079400 	lh	a3,-27648(t0)
    3844:	04000009 	bltz	zero,386c <ABIFlags_flags2+0x3858>
    3848:	00007a73 	tltu	zero,zero,0x1e9
    384c:	7b079800 	xori.b	$w0,$w19,0x7
    3850:	04000009 	bltz	zero,3878 <ABIFlags_flags2+0x3864>
    3854:	00007a74 	teq	zero,zero,0x1e9
    3858:	08009c00 	j	27000 <__memory_size+0x7800>
    385c:	00000093 	0x93
    3860:	00000199 	0x199
    3864:	00019909 	0x19909
    3868:	02000100 	0x2000100
    386c:	02170704 	0x2170704
    3870:	93080000 	lbu	t0,0(t8)
    3874:	b0000000 	0xb0000000
    3878:	09000001 	j	4000004 <__memory_size+0x3fe0804>
    387c:	00000199 	0x199
    3880:	93080003 	lbu	t0,3(t8)
    3884:	c0000000 	ll	zero,0(zero)
    3888:	09000001 	j	4000004 <__memory_size+0x3fe0804>
    388c:	00000199 	0x199
    3890:	040a0007 	tlti	zero,7
    3894:	0009330b 	0x9330b
    3898:	6f370100 	0x6f370100
    389c:	98000000 	lwr	zero,0(zero)
    38a0:	14800014 	bnez	a0,38f4 <ABIFlags_flags2+0x38e0>
    38a4:	01000000 	0x1000000
    38a8:	0002119c 	0x2119c
    38ac:	74630c00 	jalx	18c3000 <__memory_size+0x18a3800>
    38b0:	37010078 	ori	at,t8,0x78
    38b4:	00000211 	0x211
    38b8:	00000971 	tgeu	zero,zero,0x25
    38bc:	0007d10d 	break	0x7,0x344
    38c0:	11390100 	beq	t1,t9,3cc4 <ABIFlags_flags2+0x3cb0>
    38c4:	01000002 	0x1000002
    38c8:	706f0e54 	s32ldi	xr9,v1,-244
    38cc:	6f3a0100 	0x6f3a0100
    38d0:	01000000 	0x1000000
    38d4:	65720e69 	0x65720e69
    38d8:	3b010074 	xori	at,t8,0x74
    38dc:	0000006f 	0x6f
    38e0:	0f005201 	jal	c014804 <__memory_size+0xbff5004>
    38e4:	00009e04 	0x9e04
    38e8:	08810000 	j	2040000 <__memory_size+0x2020800>
    38ec:	00040000 	sll	zero,a0,0x0
    38f0:	00000e93 	0xe93
    38f4:	01220104 	0x1220104
    38f8:	56010000 	bnel	s0,at,38fc <ABIFlags_flags2+0x38e8>
    38fc:	ac00000a 	sw	zero,10(zero)
    3900:	0c800014 	jal	2000050 <__memory_size+0x1fe0850>
    3904:	11000000 	beqz	t0,3908 <ABIFlags_flags2+0x38f4>
    3908:	02000011 	mthi	s0
    390c:	6e690504 	0x6e690504
    3910:	04030074 	bgezl	zero,3ae4 <ABIFlags_flags2+0x3ad0>
    3914:	0000ab05 	0xab05
    3918:	07040300 	0x7040300
    391c:	00000110 	0x110
    3920:	cc060103 	pref	0x6,259(zero)
    3924:	03000001 	movf	zero,t8,$fcc0
    3928:	01ca0801 	0x1ca0801
    392c:	02030000 	0x2030000
    3930:	00020105 	0x20105
    3934:	07020300 	bltzl	t8,4538 <ABIFlags_flags2+0x4524>
    3938:	000000b4 	teq	zero,zero,0x2
    393c:	a6050803 	sh	a1,2051(s0)
    3940:	03000000 	0x3000000
    3944:	010b0708 	0x10b0708
    3948:	3f040000 	0x3f040000
    394c:	02000004 	sllv	zero,zero,s0
    3950:	00002107 	0x2107
    3954:	041d0400 	0x41d0400
    3958:	10030000 	beq	zero,v1,395c <ABIFlags_flags2+0x3948>
    395c:	00000028 	0x28
    3960:	00050004 	sllv	zero,a1,zero
    3964:	28270300 	slti	a3,at,768
    3968:	05000000 	bltz	t0,396c <ABIFlags_flags2+0x3958>
    396c:	000003ec 	0x3ec
    3970:	8d016104 	lw	at,24836(t0)
    3974:	03000000 	0x3000000
    3978:	01150704 	0x1150704
    397c:	04060000 	0x4060000
    3980:	00b34a03 	0xb34a03
    3984:	e6070000 	swc1	$f7,0(s0)
    3988:	03000003 	0x3000003
    398c:	0000814c 	syscall	0x205
    3990:	03980700 	0x3980700
    3994:	4d030000 	lwxc1	$f0,v1(t0)
    3998:	000000b3 	tltu	zero,zero,0x2
    399c:	003d0800 	0x3d0800
    39a0:	00c30000 	0xc30000
    39a4:	c3090000 	ll	t1,0(t8)
    39a8:	03000000 	0x3000000
    39ac:	07040300 	0x7040300
    39b0:	00000217 	0x217
    39b4:	4703080a 	bz.b	$w3,59e0 <ABIFlags_flags2+0x59cc>
    39b8:	000000eb 	0xeb
    39bc:	0004ea0b 	0x4ea0b
    39c0:	21490300 	addi	t1,t2,768
    39c4:	00000000 	nop
    39c8:	0004f20b 	0x4f20b
    39cc:	944e0300 	lhu	t6,768(v0)
    39d0:	04000000 	bltz	zero,39d4 <ABIFlags_flags2+0x39c0>
    39d4:	047d0400 	0x47d0400
    39d8:	4f030000 	lwxc1	$f0,v1(t8)
    39dc:	000000ca 	0xca
    39e0:	00035b04 	0x35b04
    39e4:	60530300 	0x60530300
    39e8:	0c000000 	jal	0 <hardware_exit_hook>
    39ec:	053c0404 	0x53c0404
    39f0:	16050000 	bne	s0,a1,39f4 <ABIFlags_flags2+0x39e0>
    39f4:	0000002f 	0x2f
    39f8:	00036c0d 	break	0x3,0x1b0
    39fc:	2d051800 	sltiu	a1,t0,6144
    3a00:	00000161 	0x161
    3a04:	00049e0b 	0x49e0b
    3a08:	612f0500 	0x612f0500
    3a0c:	00000001 	movf	zero,zero,$fcc0
    3a10:	006b5f0e 	0x6b5f0e
    3a14:	00213005 	lsa	a2,at,at,0x1
    3a18:	0b040000 	j	c100000 <__memory_size+0xc0e0800>
    3a1c:	000004d5 	0x4d5
    3a20:	00213005 	lsa	a2,at,at,0x1
    3a24:	0b080000 	j	c200000 <__memory_size+0xc1e0800>
    3a28:	00000355 	0x355
    3a2c:	00213005 	lsa	a2,at,at,0x1
    3a30:	0b0c0000 	j	c300000 <__memory_size+0xc2e0800>
    3a34:	00000583 	sra	zero,zero,0x16
    3a38:	00213005 	lsa	a2,at,at,0x1
    3a3c:	0e100000 	jal	8400000 <__memory_size+0x83e0800>
    3a40:	0500785f 	bltz	t0,21bc0 <__memory_size+0x23c0>
    3a44:	00016731 	tgeu	zero,at,0x19c
    3a48:	0f001400 	jal	c005000 <__memory_size+0xbfe5800>
    3a4c:	00010e04 	0x10e04
    3a50:	01030800 	0x1030800
    3a54:	01770000 	0x1770000
    3a58:	c3090000 	ll	t1,0(t8)
    3a5c:	00000000 	nop
    3a60:	03930d00 	0x3930d00
    3a64:	05240000 	0x5240000
    3a68:	0001f035 	0x1f035
    3a6c:	028d0b00 	0x28d0b00
    3a70:	37050000 	ori	a1,t8,0x0
    3a74:	00000021 	move	zero,zero
    3a78:	05120b00 	bltzall	t0,667c <ABIFlags_flags2+0x6668>
    3a7c:	38050000 	xori	a1,zero,0x0
    3a80:	00000021 	move	zero,zero
    3a84:	02a20b04 	0x2a20b04
    3a88:	39050000 	xori	a1,t0,0x0
    3a8c:	00000021 	move	zero,zero
    3a90:	05fc0b08 	0x5fc0b08
    3a94:	3a050000 	xori	a1,s0,0x0
    3a98:	00000021 	move	zero,zero
    3a9c:	04090b0c 	tgeiu	zero,2828
    3aa0:	3b050000 	xori	a1,t8,0x0
    3aa4:	00000021 	move	zero,zero
    3aa8:	05080b10 	tgei	t0,2832
    3aac:	3c050000 	lui	a1,0x0
    3ab0:	00000021 	move	zero,zero
    3ab4:	05880b14 	tgei	t4,2836
    3ab8:	3d050000 	0x3d050000
    3abc:	00000021 	move	zero,zero
    3ac0:	045f0b18 	synci	2840(v0)
    3ac4:	3e050000 	0x3e050000
    3ac8:	00000021 	move	zero,zero
    3acc:	05c30b1c 	bgezl	t6,6740 <ABIFlags_flags2+0x672c>
    3ad0:	3f050000 	0x3f050000
    3ad4:	00000021 	move	zero,zero
    3ad8:	b1100020 	0xb1100020
    3adc:	08000002 	j	8 <ABIFlags_isa_ext>
    3ae0:	30480501 	andi	t0,v0,0x501
    3ae4:	0b000002 	j	c000008 <__memory_size+0xbfe0808>
    3ae8:	0000022c 	0x22c
    3aec:	02304905 	0x2304905
    3af0:	0b000000 	j	c000000 <__memory_size+0xbfe0800>
    3af4:	00000220 	0x220
    3af8:	02304a05 	0x2304a05
    3afc:	11800000 	beqz	t4,3b00 <ABIFlags_flags2+0x3aec>
    3b00:	0000052e 	0x52e
    3b04:	01034c05 	0x1034c05
    3b08:	01000000 	0x1000000
    3b0c:	0002d611 	0x2d611
    3b10:	034f0500 	0x34f0500
    3b14:	04000001 	bltz	zero,3b1c <ABIFlags_flags2+0x3b08>
    3b18:	01080001 	movf	zero,t0,$fcc2
    3b1c:	40000001 	mfc0	zero,c0_mvpcontrol
    3b20:	09000002 	j	4000008 <__memory_size+0x3fe0808>
    3b24:	000000c3 	sra	zero,zero,0x3
    3b28:	0f10001f 	jal	c40007c <__memory_size+0xc3e087c>
    3b2c:	90000002 	lbu	zero,2(zero)
    3b30:	7e5b0501 	0x7e5b0501
    3b34:	0b000002 	j	c000008 <__memory_size+0xbfe0808>
    3b38:	0000049e 	0x49e
    3b3c:	027e5c05 	0x27e5c05
    3b40:	0b000000 	j	c000000 <__memory_size+0xbfe0800>
    3b44:	000004b6 	tne	zero,zero,0x12
    3b48:	00215d05 	0x215d05
    3b4c:	0b040000 	j	c100000 <__memory_size+0xc0e0800>
    3b50:	00000350 	0x350
    3b54:	02845f05 	0x2845f05
    3b58:	0b080000 	j	c200000 <__memory_size+0xc1e0800>
    3b5c:	000002b1 	tgeu	zero,zero,0xa
    3b60:	01f06005 	lsa	t4,t7,s0,0x1
    3b64:	00880000 	0x880000
    3b68:	0240040f 	0x240040f
    3b6c:	94080000 	lhu	t0,0(zero)
    3b70:	94000002 	lhu	zero,2(zero)
    3b74:	09000002 	j	4000008 <__memory_size+0x3fe0808>
    3b78:	000000c3 	sra	zero,zero,0x3
    3b7c:	040f001f 	0x40f001f
    3b80:	0000029a 	0x29a
    3b84:	04690d12 	tgeiu	v1,3346
    3b88:	05080000 	tgei	t0,0
    3b8c:	0002c073 	tltu	zero,v0,0x301
    3b90:	029c0b00 	0x29c0b00
    3b94:	74050000 	jalx	140000 <__memory_size+0x120800>
    3b98:	000002c0 	sll	zero,zero,0xb
    3b9c:	087d0b00 	j	1f42c00 <__memory_size+0x1f23400>
    3ba0:	75050000 	jalx	4140000 <__memory_size+0x4120800>
    3ba4:	00000021 	move	zero,zero
    3ba8:	040f0004 	0x40f0004
    3bac:	0000003d 	0x3d
    3bb0:	0004880d 	break	0x4,0x220
    3bb4:	b3056800 	0xb3056800
    3bb8:	000003f0 	tge	zero,zero,0xf
    3bbc:	00705f0e 	0x705f0e
    3bc0:	02c0b405 	0x2c0b405
    3bc4:	0e000000 	jal	8000000 <__memory_size+0x7fe0800>
    3bc8:	0500725f 	bltz	t0,20548 <__memory_size+0xd48>
    3bcc:	000021b5 	0x21b5
    3bd0:	5f0e0400 	0x5f0e0400
    3bd4:	b6050077 	0xb6050077
    3bd8:	00000021 	move	zero,zero
    3bdc:	02cf0b08 	0x2cf0b08
    3be0:	b7050000 	0xb7050000
    3be4:	00000044 	0x44
    3be8:	03af0b0c 	syscall	0xebc2c
    3bec:	b8050000 	swr	a1,0(zero)
    3bf0:	00000044 	0x44
    3bf4:	625f0e0e 	0x625f0e0e
    3bf8:	b9050066 	swr	a1,102(t0)
    3bfc:	0000029b 	0x29b
    3c00:	02670b10 	0x2670b10
    3c04:	ba050000 	swr	a1,0(s0)
    3c08:	00000021 	move	zero,zero
    3c0c:	02bf0b18 	0x2bf0b18
    3c10:	c1050000 	ll	a1,0(t0)
    3c14:	00000101 	0x101
    3c18:	03830b1c 	0x3830b1c
    3c1c:	c3050000 	ll	a1,0(t8)
    3c20:	00000553 	0x553
    3c24:	03fb0b20 	0x3fb0b20
    3c28:	c5050000 	lwc1	$f5,0(t0)
    3c2c:	00000582 	srl	zero,zero,0x16
    3c30:	04fa0b24 	0x4fa0b24
    3c34:	c8050000 	lwc2	$5,0(zero)
    3c38:	000005a6 	0x5a6
    3c3c:	05dd0b28 	0x5dd0b28
    3c40:	c9050000 	lwc2	$5,0(t0)
    3c44:	000005c0 	sll	zero,zero,0x17
    3c48:	755f0e2c 	jalx	57c38b0 <__memory_size+0x57a40b0>
    3c4c:	cc050062 	pref	0x5,98(zero)
    3c50:	0000029b 	0x29b
    3c54:	755f0e30 	jalx	57c38c0 <__memory_size+0x57a40c0>
    3c58:	cd050070 	pref	0x5,112(t0)
    3c5c:	000002c0 	sll	zero,zero,0xb
    3c60:	755f0e38 	jalx	57c38e0 <__memory_size+0x57a40e0>
    3c64:	ce050072 	pref	0x5,114(s0)
    3c68:	00000021 	move	zero,zero
    3c6c:	02960b3c 	0x2960b3c
    3c70:	d1050000 	0xd1050000
    3c74:	000005c6 	0x5c6
    3c78:	05b50b40 	0x5b50b40
    3c7c:	d2050000 	0xd2050000
    3c80:	000005d6 	0x5d6
    3c84:	6c5f0e43 	0x6c5f0e43
    3c88:	d5050062 	ldc1	$f5,98(t0)
    3c8c:	0000029b 	0x29b
    3c90:	02e50b44 	0x2e50b44
    3c94:	d8050000 	ldc2	$5,0(zero)
    3c98:	00000021 	move	zero,zero
    3c9c:	02f60b4c 	syscall	0xbd82d
    3ca0:	d9050000 	ldc2	$5,0(t0)
    3ca4:	0000006b 	0x6b
    3ca8:	060c0b50 	teqi	s0,2896
    3cac:	dc050000 	ldc3	$5,0(zero)
    3cb0:	0000040e 	0x40e
    3cb4:	06db0b54 	0x6db0b54
    3cb8:	e0050000 	sc	a1,0(zero)
    3cbc:	000000f6 	tne	zero,zero,0x3
    3cc0:	04900b58 	bltzal	a0,6a24 <ABIFlags_flags2+0x6a10>
    3cc4:	e2050000 	sc	a1,0(s0)
    3cc8:	000000eb 	0xeb
    3ccc:	03f30b5c 	0x3f30b5c
    3cd0:	e3050000 	sc	a1,0(t8)
    3cd4:	00000021 	move	zero,zero
    3cd8:	21130064 	addi	s3,t0,100
    3cdc:	0e000000 	jal	8000000 <__memory_size+0x7fe0800>
    3ce0:	14000004 	bnez	zero,3cf4 <ABIFlags_flags2+0x3ce0>
    3ce4:	0000040e 	0x40e
    3ce8:	00010114 	0x10114
    3cec:	05461400 	0x5461400
    3cf0:	21140000 	addi	s4,t0,0
    3cf4:	00000000 	nop
    3cf8:	0414040f 	0x414040f
    3cfc:	dd150000 	ldc3	$21,0(t0)
    3d00:	28000004 	slti	zero,zero,4
    3d04:	02390504 	0x2390504
    3d08:	00000546 	0x546
    3d0c:	000a1116 	0xa1116
    3d10:	023b0500 	0x23b0500
    3d14:	00000021 	move	zero,zero
    3d18:	02de1600 	0x2de1600
    3d1c:	40050000 	mfc0	a1,c0_index
    3d20:	00062d02 	srl	a1,a2,0x14
    3d24:	9f160400 	0x9f160400
    3d28:	05000003 	bltz	t0,3d38 <ABIFlags_flags2+0x3d24>
    3d2c:	062d0240 	0x62d0240
    3d30:	16080000 	bne	s0,t0,3d34 <ABIFlags_flags2+0x3d20>
    3d34:	00000364 	0x364
    3d38:	2d024005 	sltiu	v0,t0,16389
    3d3c:	0c000006 	jal	18 <ABIFlags_flags2+0x4>
    3d40:	0004b116 	0x4b116
    3d44:	02420500 	0x2420500
    3d48:	00000021 	move	zero,zero
    3d4c:	023c1610 	0x23c1610
    3d50:	43050000 	c0	0x1050000
    3d54:	00080f02 	srl	at,t0,0x1c
    3d58:	64161400 	0x64161400
    3d5c:	05000005 	bltz	t0,3d74 <ABIFlags_flags2+0x3d60>
    3d60:	00210245 	0x210245
    3d64:	16300000 	bne	s1,s0,3d68 <ABIFlags_flags2+0x3d54>
    3d68:	000004bb 	0x4bb
    3d6c:	77024605 	jalx	c091814 <__memory_size+0xc072014>
    3d70:	34000005 	li	zero,0x5
    3d74:	00041216 	0x41216
    3d78:	02480500 	0x2480500
    3d7c:	00000021 	move	zero,zero
    3d80:	04cb1638 	tltiu	a2,5688
    3d84:	4a050000 	c2	0x50000
    3d88:	00082a02 	srl	a1,t0,0x8
    3d8c:	de163c00 	ldc3	$22,15360(s0)
    3d90:	05000003 	bltz	t0,3da0 <ABIFlags_flags2+0x3d8c>
    3d94:	0161024d 	break	0x161,0x9
    3d98:	16400000 	bnez	s2,3d9c <ABIFlags_flags2+0x3d88>
    3d9c:	00000389 	0x389
    3da0:	21024e05 	addi	v0,t0,19973
    3da4:	44000000 	mfc1	zero,$f0
    3da8:	0005f716 	0x5f716
    3dac:	024f0500 	0x24f0500
    3db0:	00000161 	0x161
    3db4:	04351648 	0x4351648
    3db8:	50050000 	beql	zero,a1,3dbc <ABIFlags_flags2+0x3da8>
    3dbc:	00083002 	srl	a2,t0,0x0
    3dc0:	a7164c00 	sh	s6,19456(t8)
    3dc4:	05000003 	bltz	t0,3dd4 <ABIFlags_flags2+0x3dc0>
    3dc8:	00210253 	0x210253
    3dcc:	16500000 	bne	s2,s0,3dd0 <ABIFlags_flags2+0x3dbc>
    3dd0:	000002ee 	0x2ee
    3dd4:	46025405 	c1	0x25405
    3dd8:	54000005 	bnezl	zero,3df0 <ABIFlags_flags2+0x3ddc>
    3ddc:	00045116 	0x45116
    3de0:	02770500 	0x2770500
    3de4:	000007ed 	0x7ed
    3de8:	020f1758 	0x20f1758
    3dec:	7b050000 	xori.b	$w0,$w0,0x5
    3df0:	00027e02 	srl	t7,v0,0x18
    3df4:	17014800 	bne	t8,at,15df8 <ABIFlags_flags2+0x15de4>
    3df8:	000003bc 	0x3bc
    3dfc:	40027c05 	0x40027c05
    3e00:	4c000002 	mfc3	zero,$0,2
    3e04:	05ab1701 	tltiu	t5,5889
    3e08:	80050000 	lb	a1,0(zero)
    3e0c:	00084102 	srl	t0,t0,0x4
    3e10:	1702dc00 	bne	t8,v0,ffffae14 <__flash_start+0x403fae14>
    3e14:	000002c7 	0x2c7
    3e18:	f2028505 	0xf2028505
    3e1c:	e0000005 	sc	zero,5(zero)
    3e20:	02ac1702 	0x2ac1702
    3e24:	86050000 	lh	a1,0(s0)
    3e28:	00084d02 	srl	t1,t0,0x14
    3e2c:	0002ec00 	sll	sp,v0,0x10
    3e30:	054c040f 	teqi	t2,1039
    3e34:	01030000 	0x1030000
    3e38:	0001d308 	0x1d308
    3e3c:	f0040f00 	0xf0040f00
    3e40:	13000003 	beqz	t8,3e50 <ABIFlags_flags2+0x3e3c>
    3e44:	00000021 	move	zero,zero
    3e48:	00000577 	0x577
    3e4c:	00040e14 	0x40e14
    3e50:	01011400 	0x1011400
    3e54:	77140000 	jalx	c500000 <__memory_size+0xc4e0800>
    3e58:	14000005 	bnez	zero,3e70 <ABIFlags_flags2+0x3e5c>
    3e5c:	00000021 	move	zero,zero
    3e60:	7d040f00 	ext	a0,t0,0x1c,0x2
    3e64:	18000005 	blez	zero,3e7c <ABIFlags_flags2+0x3e68>
    3e68:	0000054c 	syscall	0x15
    3e6c:	0559040f 	0x559040f
    3e70:	76130000 	jalx	84c0000 <__memory_size+0x84a0800>
    3e74:	a6000000 	sh	zero,0(s0)
    3e78:	14000005 	bnez	zero,3e90 <ABIFlags_flags2+0x3e7c>
    3e7c:	0000040e 	0x40e
    3e80:	00010114 	0x10114
    3e84:	00761400 	0x761400
    3e88:	21140000 	addi	s4,t0,0
    3e8c:	00000000 	nop
    3e90:	0588040f 	tgei	t4,1039
    3e94:	21130000 	addi	s3,t0,0
    3e98:	c0000000 	ll	zero,0(zero)
    3e9c:	14000005 	bnez	zero,3eb4 <ABIFlags_flags2+0x3ea0>
    3ea0:	0000040e 	0x40e
    3ea4:	00010114 	0x10114
    3ea8:	040f0000 	0x40f0000
    3eac:	000005ac 	0x5ac
    3eb0:	00003d08 	0x3d08
    3eb4:	0005d600 	sll	k0,a1,0x18
    3eb8:	00c30900 	0xc30900
    3ebc:	00020000 	sll	zero,v0,0x0
    3ec0:	00003d08 	0x3d08
    3ec4:	0005e600 	sll	gp,a1,0x18
    3ec8:	00c30900 	0xc30900
    3ecc:	00000000 	nop
    3ed0:	00047605 	0x47605
    3ed4:	011d0500 	0x11d0500
    3ed8:	000002c6 	0x2c6
    3edc:	00059219 	0x59219
    3ee0:	21050c00 	addi	a1,t0,3072
    3ee4:	00062701 	0x62701
    3ee8:	049e1600 	0x49e1600
    3eec:	23050000 	addi	a1,t8,0
    3ef0:	00062701 	0x62701
    3ef4:	b5160000 	0xb5160000
    3ef8:	05000003 	bltz	t0,3f08 <ABIFlags_flags2+0x3ef4>
    3efc:	00210124 	0x210124
    3f00:	16040000 	bne	s0,a0,3f04 <ABIFlags_flags2+0x3ef0>
    3f04:	00000470 	tge	zero,zero,0x11
    3f08:	2d012505 	sltiu	at,t0,9477
    3f0c:	08000006 	j	18 <ABIFlags_flags2+0x4>
    3f10:	f2040f00 	0xf2040f00
    3f14:	0f000005 	jal	c000014 <__memory_size+0xbfe0814>
    3f18:	0005e604 	0x5e604
    3f1c:	02341900 	0x2341900
    3f20:	050e0000 	tnei	t0,0
    3f24:	0668013d 	tgei	s3,317
    3f28:	e4160000 	swc1	$f22,0(zero)
    3f2c:	05000004 	bltz	t0,3f40 <ABIFlags_flags2+0x3f2c>
    3f30:	0668013e 	tgei	s3,318
    3f34:	16000000 	bnez	s0,3f38 <ABIFlags_flags2+0x3f24>
    3f38:	0000051b 	0x51b
    3f3c:	68013f05 	0x68013f05
    3f40:	06000006 	bltz	s0,3f5c <ABIFlags_flags2+0x3f48>
    3f44:	00053716 	0x53716
    3f48:	01400500 	0x1400500
    3f4c:	0000004b 	0x4b
    3f50:	4b08000c 	c2	0x108000c
    3f54:	78000000 	andi.b	$w0,$w0,0x0
    3f58:	09000006 	j	4000018 <__memory_size+0x3fe0818>
    3f5c:	000000c3 	sra	zero,zero,0x3
    3f60:	d01a0002 	0xd01a0002
    3f64:	79025805 	0x79025805
    3f68:	16000007 	bnez	s0,3f88 <ABIFlags_flags2+0x3f74>
    3f6c:	00000576 	tne	zero,zero,0x15
    3f70:	8d025a05 	lw	v0,23045(t0)
    3f74:	00000000 	nop
    3f78:	00052116 	0x52116
    3f7c:	025b0500 	0x25b0500
    3f80:	00000546 	0x546
    3f84:	03d11604 	0x3d11604
    3f88:	5c050000 	0x5c050000
    3f8c:	00077902 	srl	t7,a3,0x4
    3f90:	ce160800 	pref	0x16,2048(s0)
    3f94:	05000005 	bltz	t0,3fac <ABIFlags_flags2+0x3f98>
    3f98:	0177025d 	0x177025d
    3f9c:	16240000 	bne	s1,a0,3fa0 <ABIFlags_flags2+0x3f8c>
    3fa0:	00000374 	teq	zero,zero,0xd
    3fa4:	21025e05 	addi	v0,t0,24069
    3fa8:	48000000 	mfc2	zero,$0
    3fac:	00049916 	0x49916
    3fb0:	025f0500 	0x25f0500
    3fb4:	00000059 	0x59
    3fb8:	05e41650 	0x5e41650
    3fbc:	60050000 	0x60050000
    3fc0:	00063302 	srl	a2,a2,0xc
    3fc4:	a4165800 	sh	s6,22528(zero)
    3fc8:	05000004 	bltz	t0,3fdc <ABIFlags_flags2+0x3fc8>
    3fcc:	00eb0261 	0xeb0261
    3fd0:	16680000 	bne	s3,t0,3fd4 <ABIFlags_flags2+0x3fc0>
    3fd4:	000005e9 	0x5e9
    3fd8:	eb026205 	swc2	$2,25093(t8)
    3fdc:	70000000 	madd	zero,zero
    3fe0:	00027f16 	0x27f16
    3fe4:	02630500 	0x2630500
    3fe8:	000000eb 	0xeb
    3fec:	05a11678 	bgez	t5,99d0 <ABIFlags_flags2+0x99bc>
    3ff0:	64050000 	0x64050000
    3ff4:	00078902 	srl	s1,a3,0x4
    3ff8:	c5168000 	lwc1	$f22,-32768(t0)
    3ffc:	05000003 	bltz	t0,400c <ABIFlags_flags2+0x3ff8>
    4000:	07990265 	0x7990265
    4004:	16880000 	bne	s4,t0,4008 <ABIFlags_flags2+0x3ff4>
    4008:	00000544 	0x544
    400c:	21026605 	addi	v0,t0,26117
    4010:	a0000000 	sb	zero,0(zero)
    4014:	00030f16 	0x30f16
    4018:	02670500 	0x2670500
    401c:	000000eb 	0xeb
    4020:	027016a4 	0x27016a4
    4024:	68050000 	0x68050000
    4028:	0000eb02 	srl	sp,zero,0xc
    402c:	fe16ac00 	sdc3	$22,-21504(s0)
    4030:	05000002 	bltz	t0,403c <ABIFlags_flags2+0x4028>
    4034:	00eb0269 	0xeb0269
    4038:	16b40000 	bne	s5,s4,403c <ABIFlags_flags2+0x4028>
    403c:	00000247 	0x247
    4040:	eb026a05 	swc2	$2,27141(t8)
    4044:	bc000000 	cache	0x0,0(zero)
    4048:	00025616 	0x25616
    404c:	026b0500 	0x26b0500
    4050:	000000eb 	0xeb
    4054:	045616c4 	0x45616c4
    4058:	6c050000 	0x6c050000
    405c:	00002102 	srl	a0,zero,0x4
    4060:	0800cc00 	j	33000 <__memory_size+0x13800>
    4064:	0000054c 	syscall	0x15
    4068:	00000789 	0x789
    406c:	0000c309 	0xc309
    4070:	08001900 	j	6400 <ABIFlags_flags2+0x63ec>
    4074:	0000054c 	syscall	0x15
    4078:	00000799 	0x799
    407c:	0000c309 	0xc309
    4080:	08000700 	j	1c00 <ABIFlags_flags2+0x1bec>
    4084:	0000054c 	syscall	0x15
    4088:	000007a9 	0x7a9
    408c:	0000c309 	0xc309
    4090:	1a001700 	blez	s0,9c94 <ABIFlags_flags2+0x9c80>
    4094:	027105f0 	tge	s3,s1,0x17
    4098:	000007cd 	break	0x0,0x1f
    409c:	00040216 	0x40216
    40a0:	02740500 	0x2740500
    40a4:	000007cd 	break	0x0,0x1f
    40a8:	05981600 	0x5981600
    40ac:	75050000 	jalx	4140000 <__memory_size+0x4120800>
    40b0:	0007dd02 	srl	k1,a3,0x14
    40b4:	08007800 	j	1e000 <ABIFlags_flags2+0x1dfec>
    40b8:	000002c0 	sll	zero,zero,0xb
    40bc:	000007dd 	0x7dd
    40c0:	0000c309 	0xc309
    40c4:	08001d00 	j	7400 <ABIFlags_flags2+0x73ec>
    40c8:	0000008d 	break	0x0,0x2
    40cc:	000007ed 	0x7ed
    40d0:	0000c309 	0xc309
    40d4:	1b001d00 	blez	t8,b4d8 <ABIFlags_flags2+0xb4c4>
    40d8:	025605f0 	tge	s2,s6,0x17
    40dc:	0000080f 	0x80f
    40e0:	0004dd1c 	0x4dd1c
    40e4:	026d0500 	0x26d0500
    40e8:	00000678 	0x678
    40ec:	0005bb1c 	0x5bb1c
    40f0:	02760500 	0x2760500
    40f4:	000007a9 	0x7a9
    40f8:	054c0800 	teqi	t2,2048
    40fc:	081f0000 	j	7c0000 <__memory_size+0x7a0800>
    4100:	c3090000 	ll	t1,0(t8)
    4104:	18000000 	blez	zero,4108 <ABIFlags_flags2+0x40f4>
    4108:	082a1d00 	j	a87400 <__memory_size+0xa67c00>
    410c:	0e140000 	jal	8500000 <__memory_size+0x84e0800>
    4110:	00000004 	sllv	zero,zero,zero
    4114:	081f040f 	j	7c103c <__memory_size+0x7a183c>
    4118:	040f0000 	0x40f0000
    411c:	00000161 	0x161
    4120:	0008411d 	0x8411d
    4124:	00211400 	0x211400
    4128:	0f000000 	jal	c000000 <__memory_size+0xbfe0800>
    412c:	00084704 	0x84704
    4130:	36040f00 	ori	a0,s0,0xf00
    4134:	08000008 	j	20 <ABIFlags_flags2+0xc>
    4138:	000005e6 	0x5e6
    413c:	0000085d 	0x85d
    4140:	0000c309 	0xc309
    4144:	1e000200 	bgtz	s0,4948 <ABIFlags_flags2+0x4934>
    4148:	00000a10 	0xa10
    414c:	08720f06 	j	1c83c18 <__memory_size+0x1c64418>
    4150:	14ac0000 	bne	a1,t4,4154 <ABIFlags_flags2+0x4140>
    4154:	000c8000 	sll	s0,t4,0x0
    4158:	9c010000 	0x9c010000
    415c:	0021040f 	0x21040f
    4160:	581f0000 	0x581f0000
    4164:	05000005 	bltz	t0,417c <ABIFlags_flags2+0x4168>
    4168:	040e02fa 	tnei	zero,762
    416c:	Address 0x000000000000416c is out of bounds.


Disassembly of section .debug_abbrev:

00000000 <.debug_abbrev>:
       0:	10001101 	b	4408 <ABIFlags_flags2+0x43f4>
       4:	12011106 	beq	s0,at,4420 <ABIFlags_flags2+0x440c>
       8:	1b080301 	0x1b080301
       c:	13082508 	beq	t8,t0,9430 <ABIFlags_flags2+0x941c>
      10:	00000005 	lsa	zero,zero,zero,0x1
      14:	10001101 	b	441c <ABIFlags_flags2+0x4408>
      18:	12011106 	beq	s0,at,4434 <ABIFlags_flags2+0x4420>
      1c:	1b080301 	0x1b080301
      20:	13082508 	beq	t8,t0,9444 <ABIFlags_flags2+0x9430>
      24:	00000005 	lsa	zero,zero,zero,0x1
      28:	25011101 	addiu	at,t0,4353
      2c:	030b130e 	0x30b130e
      30:	110e1b0e 	beq	t0,t6,6c6c <ABIFlags_flags2+0x6c58>
      34:	10061201 	beq	zero,a2,483c <ABIFlags_flags2+0x4828>
      38:	02000017 	0x2000017
      3c:	193f012e 	0x193f012e
      40:	0b3a0e03 	j	ce8380c <__memory_size+0xce6400c>
      44:	13490b3b 	beq	k0,t1,2d34 <ABIFlags_flags2+0x2d20>
      48:	06120111 	bltzall	s0,490 <ABIFlags_flags2+0x47c>
      4c:	42961840 	c0	0x961840
      50:	00130119 	0x130119
      54:	00340300 	0x340300
      58:	0b3a0e03 	j	ce8380c <__memory_size+0xce6400c>
      5c:	13490b3b 	beq	k0,t1,2d4c <ABIFlags_flags2+0x2d38>
      60:	00001802 	srl	v1,zero,0x0
      64:	0b002404 	j	c009010 <__memory_size+0xbfe9810>
      68:	030b3e0b 	0x30b3e0b
      6c:	05000008 	bltz	t0,90 <ABIFlags_flags2+0x7c>
      70:	0b0b000f 	j	c2c003c <__memory_size+0xc2a083c>
      74:	00001349 	0x1349
      78:	49003506 	bc2f	d494 <ABIFlags_flags2+0xd480>
      7c:	07000013 	bltz	t8,cc <ABIFlags_flags2+0xb8>
      80:	0b0b0024 	j	c2c0090 <__memory_size+0xc2a0890>
      84:	0e030b3e 	jal	80c2cf8 <__memory_size+0x80a34f8>
      88:	2e080000 	sltiu	t0,s0,0
      8c:	03193f01 	0x3193f01
      90:	3b0b3a0e 	xori	t3,t8,0x3a0e
      94:	1201110b 	beq	s0,at,44c4 <ABIFlags_flags2+0x44b0>
      98:	97184006 	lhu	t8,16390(t8)
      9c:	00001942 	srl	v1,zero,0x5
      a0:	03003409 	jalr.hb	a2,t8
      a4:	3b0b3a08 	xori	t3,t8,0x3a08
      a8:	0213490b 	0x213490b
      ac:	00000018 	mult	zero,zero
      b0:	25011101 	addiu	at,t0,4353
      b4:	030b130e 	0x30b130e
      b8:	1201110e 	beq	s0,at,44f4 <ABIFlags_flags2+0x44e0>
      bc:	00171006 	srlv	v0,s7,zero
      c0:	00240200 	0x240200
      c4:	0b3e0b0b 	j	cf82c2c <__memory_size+0xcf6342c>
      c8:	00000e03 	sra	at,zero,0x18
      cc:	0b002403 	j	c00900c <__memory_size+0xbfe980c>
      d0:	030b3e0b 	0x30b3e0b
      d4:	04000008 	bltz	zero,f8 <ABIFlags_flags2+0xe4>
      d8:	0b0b000f 	j	c2c003c <__memory_size+0xc2a083c>
      dc:	0f050000 	jal	c140000 <__memory_size+0xc120800>
      e0:	490b0b00 	bc2tl	$cc2,2ce4 <ABIFlags_flags2+0x2cd0>
      e4:	06000013 	bltz	s0,134 <ABIFlags_flags2+0x120>
      e8:	19270015 	0x19270015
      ec:	04070000 	aclr	0x0,0(zero)
      f0:	0b0e0301 	j	c380c04 <__memory_size+0xc361404>
      f4:	3b0b3a0b 	xori	t3,t8,0x3a0b
      f8:	0013010b 	0x13010b
      fc:	00280800 	0x280800
     100:	0d1c0e03 	jal	470380c <__memory_size+0x46e400c>
     104:	2e090000 	sltiu	t1,s0,0
     108:	03193f01 	0x3193f01
     10c:	3b0b3a0e 	xori	t3,t8,0x3a0e
     110:	4919270b 	bc2t	$cc6,9d40 <ABIFlags_flags2+0x9d2c>
     114:	12011113 	beq	s0,at,4564 <ABIFlags_flags2+0x4550>
     118:	97184006 	lhu	t8,16390(t8)
     11c:	13011942 	beq	t8,at,6628 <ABIFlags_flags2+0x6614>
     120:	050a0000 	tlti	t0,0
     124:	3a080300 	xori	t0,s0,0x300
     128:	490b3b0b 	bc2tl	$cc2,ed58 <ABIFlags_flags2+0xed44>
     12c:	00170213 	0x170213
     130:	82890b00 	lb	t1,2816(s4)
     134:	01110101 	0x1110101
     138:	00001331 	tgeu	zero,zero,0x4c
     13c:	01828a0c 	syscall	0x60a28
     140:	91180200 	lbu	t8,512(t0)
     144:	00001842 	srl	v1,zero,0x1
     148:	3f012e0d 	0x3f012e0d
     14c:	3a0e0319 	xori	t6,s0,0x319
     150:	270b3b0b 	addiu	t3,t8,15115
     154:	3c134919 	lui	s3,0x4919
     158:	0e000019 	jal	8000064 <__memory_size+0x7fe0864>
     15c:	13490005 	beq	k0,t1,174 <ABIFlags_flags2+0x160>
     160:	01000000 	0x1000000
     164:	0e250111 	jal	8940444 <__memory_size+0x8920c44>
     168:	0e030b13 	jal	80c2c4c <__memory_size+0x80a344c>
     16c:	06120111 	bltzall	s0,5b4 <ABIFlags_flags2+0x5a0>
     170:	00001710 	0x1710
     174:	0b002402 	j	c009008 <__memory_size+0xbfe9808>
     178:	030b3e0b 	0x30b3e0b
     17c:	0300000e 	0x300000e
     180:	0b0b0024 	j	c2c0090 <__memory_size+0xc2a0890>
     184:	08030b3e 	j	c2cf8 <__memory_size+0xa34f8>
     188:	16040000 	bne	s0,a0,18c <ABIFlags_flags2+0x178>
     18c:	3a0e0300 	xori	t6,s0,0x300
     190:	490b3b0b 	bc2tl	$cc2,edc0 <ABIFlags_flags2+0xedac>
     194:	05000013 	bltz	t0,1e4 <ABIFlags_flags2+0x1d0>
     198:	0e030016 	jal	80c0058 <__memory_size+0x80a0858>
     19c:	053b0b3a 	0x53b0b3a
     1a0:	00001349 	0x1349
     1a4:	0b011706 	j	c045c18 <__memory_size+0xc026418>
     1a8:	3b0b3a0b 	xori	t3,t8,0x3a0b
     1ac:	0013010b 	0x13010b
     1b0:	000d0700 	sll	zero,t5,0x1c
     1b4:	0b3a0e03 	j	ce8380c <__memory_size+0xce6400c>
     1b8:	13490b3b 	beq	k0,t1,2ea8 <ABIFlags_flags2+0x2e94>
     1bc:	01080000 	0x1080000
     1c0:	01134901 	0x1134901
     1c4:	09000013 	j	400004c <__memory_size+0x3fe084c>
     1c8:	13490021 	beq	k0,t1,250 <ABIFlags_flags2+0x23c>
     1cc:	00000b2f 	0xb2f
     1d0:	0b01130a 	j	c044c28 <__memory_size+0xc025428>
     1d4:	3b0b3a0b 	xori	t3,t8,0x3a0b
     1d8:	0013010b 	0x13010b
     1dc:	000d0b00 	sll	at,t5,0xc
     1e0:	0b3a0e03 	j	ce8380c <__memory_size+0xce6400c>
     1e4:	13490b3b 	beq	k0,t1,2ed4 <ABIFlags_flags2+0x2ec0>
     1e8:	00000b38 	0xb38
     1ec:	0b000f0c 	j	c003c30 <__memory_size+0xbfe4430>
     1f0:	0d00000b 	jal	400002c <__memory_size+0x3fe082c>
     1f4:	0e030113 	jal	80c044c <__memory_size+0x80a0c4c>
     1f8:	0b3a0b0b 	j	ce82c2c <__memory_size+0xce6342c>
     1fc:	13010b3b 	beq	t8,at,2eec <ABIFlags_flags2+0x2ed8>
     200:	0d0e0000 	jal	4380000 <__memory_size+0x4360800>
     204:	3a080300 	xori	t0,s0,0x300
     208:	490b3b0b 	bc2tl	$cc2,ee38 <ABIFlags_flags2+0xee24>
     20c:	000b3813 	0xb3813
     210:	000f0f00 	sll	at,t7,0x1c
     214:	13490b0b 	beq	k0,t1,2e44 <ABIFlags_flags2+0x2e30>
     218:	13100000 	beq	t8,s0,21c <ABIFlags_flags2+0x208>
     21c:	0b0e0301 	j	c380c04 <__memory_size+0xc361404>
     220:	3b0b3a05 	xori	t3,t8,0x3a05
     224:	0013010b 	0x13010b
     228:	000d1100 	sll	v0,t5,0x4
     22c:	0b3a0e03 	j	ce8380c <__memory_size+0xce6400c>
     230:	13490b3b 	beq	k0,t1,2f20 <ABIFlags_flags2+0x2f0c>
     234:	00000538 	0x538
     238:	27001512 	addiu	zero,t8,5394
     23c:	13000019 	beqz	t8,2a4 <ABIFlags_flags2+0x290>
     240:	19270115 	0x19270115
     244:	13011349 	beq	t8,at,4f6c <ABIFlags_flags2+0x4f58>
     248:	05140000 	0x5140000
     24c:	00134900 	sll	t1,s3,0x4
     250:	01131500 	0x1131500
     254:	050b0e03 	tltiu	t0,3587
     258:	053b0b3a 	0x53b0b3a
     25c:	00001301 	0x1301
     260:	03000d16 	0x3000d16
     264:	3b0b3a0e 	xori	t3,t8,0x3a0e
     268:	38134905 	xori	s3,zero,0x4905
     26c:	1700000b 	bnez	t8,29c <ABIFlags_flags2+0x288>
     270:	0e03000d 	jal	80c0034 <__memory_size+0x80a0834>
     274:	053b0b3a 	0x53b0b3a
     278:	05381349 	0x5381349
     27c:	26180000 	addiu	t8,s0,0
     280:	00134900 	sll	t1,s3,0x4
     284:	01131900 	0x1131900
     288:	0b0b0e03 	j	c2c380c <__memory_size+0xc2a400c>
     28c:	053b0b3a 	0x53b0b3a
     290:	00001301 	0x1301
     294:	0b01131a 	j	c044c68 <__memory_size+0xc025468>
     298:	3b0b3a0b 	xori	t3,t8,0x3a0b
     29c:	00130105 	0x130105
     2a0:	01171b00 	0x1171b00
     2a4:	0b3a0b0b 	j	ce82c2c <__memory_size+0xce6342c>
     2a8:	1301053b 	beq	t8,at,1798 <ABIFlags_flags2+0x1784>
     2ac:	0d1c0000 	jal	4700000 <__memory_size+0x46e0800>
     2b0:	3a0e0300 	xori	t6,s0,0x300
     2b4:	49053b0b 	bc2t	$cc1,eee4 <ABIFlags_flags2+0xeed0>
     2b8:	1d000013 	bgtz	t0,308 <ABIFlags_flags2+0x2f4>
     2bc:	19270115 	0x19270115
     2c0:	00001301 	0x1301
     2c4:	3f012e1e 	0x3f012e1e
     2c8:	3a0e0319 	xori	t6,s0,0x319
     2cc:	270b3b0b 	addiu	t3,t8,15115
     2d0:	12011119 	beq	s0,at,4738 <ABIFlags_flags2+0x4724>
     2d4:	96184006 	lhu	t8,16390(s0)
     2d8:	13011942 	beq	t8,at,67e4 <ABIFlags_flags2+0x67d0>
     2dc:	051f0000 	synci	0(t0)
     2e0:	3a0e0300 	xori	t6,s0,0x300
     2e4:	490b3b0b 	bc2tl	$cc2,ef14 <ABIFlags_flags2+0xef00>
     2e8:	00170213 	0x170213
     2ec:	82892000 	lb	t1,8192(s4)
     2f0:	01110101 	0x1110101
     2f4:	13011331 	beq	t8,at,4fbc <ABIFlags_flags2+0x4fa8>
     2f8:	8a210000 	lwl	at,0(s1)
     2fc:	02000182 	0x2000182
     300:	18429118 	0x18429118
     304:	89220000 	lwl	v0,0(t1)
     308:	11010182 	beq	t0,at,914 <ABIFlags_flags2+0x900>
     30c:	00133101 	0x133101
     310:	00342300 	0x342300
     314:	0b3a0e03 	j	ce8380c <__memory_size+0xce6400c>
     318:	1349053b 	beq	k0,t1,1808 <ABIFlags_flags2+0x17f4>
     31c:	193c193f 	0x193c193f
     320:	2e240000 	sltiu	a0,s1,0
     324:	03193f01 	0x3193f01
     328:	3b0b3a0e 	xori	t3,t8,0x3a0e
     32c:	3c19270b 	lui	t9,0x270b
     330:	00130119 	0x130119
     334:	012e2500 	0x12e2500
     338:	0e03193f 	jal	80c64fc <__memory_size+0x80a6cfc>
     33c:	0b3b0b3a 	j	cec2ce8 <__memory_size+0xcea34e8>
     340:	193c1927 	0x193c1927
     344:	01000000 	0x1000000
     348:	0e250111 	jal	8940444 <__memory_size+0x8920c44>
     34c:	0e030b13 	jal	80c2c4c <__memory_size+0x80a344c>
     350:	00001710 	0x1710
     354:	0b002402 	j	c009008 <__memory_size+0xbfe9808>
     358:	030b3e0b 	0x30b3e0b
     35c:	0300000e 	0x300000e
     360:	0b0b0024 	j	c2c0090 <__memory_size+0xc2a0890>
     364:	08030b3e 	j	c2cf8 <__memory_size+0xa34f8>
     368:	16040000 	bne	s0,a0,36c <ABIFlags_flags2+0x358>
     36c:	3a0e0300 	xori	t6,s0,0x300
     370:	490b3b0b 	bc2tl	$cc2,efa0 <ABIFlags_flags2+0xef8c>
     374:	05000013 	bltz	t0,3c4 <ABIFlags_flags2+0x3b0>
     378:	0e030016 	jal	80c0058 <__memory_size+0x80a0858>
     37c:	053b0b3a 	0x53b0b3a
     380:	00001349 	0x1349
     384:	0b011706 	j	c045c18 <__memory_size+0xc026418>
     388:	3b0b3a0b 	xori	t3,t8,0x3a0b
     38c:	0013010b 	0x13010b
     390:	000d0700 	sll	zero,t5,0x1c
     394:	0b3a0e03 	j	ce8380c <__memory_size+0xce6400c>
     398:	13490b3b 	beq	k0,t1,3088 <ABIFlags_flags2+0x3074>
     39c:	01080000 	0x1080000
     3a0:	01134901 	0x1134901
     3a4:	09000013 	j	400004c <__memory_size+0x3fe084c>
     3a8:	13490021 	beq	k0,t1,430 <ABIFlags_flags2+0x41c>
     3ac:	00000b2f 	0xb2f
     3b0:	0b01130a 	j	c044c28 <__memory_size+0xc025428>
     3b4:	3b0b3a0b 	xori	t3,t8,0x3a0b
     3b8:	0013010b 	0x13010b
     3bc:	000d0b00 	sll	at,t5,0xc
     3c0:	0b3a0e03 	j	ce8380c <__memory_size+0xce6400c>
     3c4:	13490b3b 	beq	k0,t1,30b4 <ABIFlags_flags2+0x30a0>
     3c8:	00000b38 	0xb38
     3cc:	0b000f0c 	j	c003c30 <__memory_size+0xbfe4430>
     3d0:	0d00000b 	jal	400002c <__memory_size+0x3fe082c>
     3d4:	0e030113 	jal	80c044c <__memory_size+0x80a0c4c>
     3d8:	0b3a0b0b 	j	ce82c2c <__memory_size+0xce6342c>
     3dc:	13010b3b 	beq	t8,at,30cc <ABIFlags_flags2+0x30b8>
     3e0:	0d0e0000 	jal	4380000 <__memory_size+0x4360800>
     3e4:	3a080300 	xori	t0,s0,0x300
     3e8:	490b3b0b 	bc2tl	$cc2,f018 <ABIFlags_flags2+0xf004>
     3ec:	000b3813 	0xb3813
     3f0:	000f0f00 	sll	at,t7,0x1c
     3f4:	13490b0b 	beq	k0,t1,3024 <ABIFlags_flags2+0x3010>
     3f8:	13100000 	beq	t8,s0,3fc <ABIFlags_flags2+0x3e8>
     3fc:	0b0e0301 	j	c380c04 <__memory_size+0xc361404>
     400:	3b0b3a05 	xori	t3,t8,0x3a05
     404:	0013010b 	0x13010b
     408:	000d1100 	sll	v0,t5,0x4
     40c:	0b3a0e03 	j	ce8380c <__memory_size+0xce6400c>
     410:	13490b3b 	beq	k0,t1,3100 <ABIFlags_flags2+0x30ec>
     414:	00000538 	0x538
     418:	27001512 	addiu	zero,t8,5394
     41c:	13000019 	beqz	t8,484 <ABIFlags_flags2+0x470>
     420:	19270115 	0x19270115
     424:	13011349 	beq	t8,at,514c <ABIFlags_flags2+0x5138>
     428:	05140000 	0x5140000
     42c:	00134900 	sll	t1,s3,0x4
     430:	01131500 	0x1131500
     434:	050b0e03 	tltiu	t0,3587
     438:	053b0b3a 	0x53b0b3a
     43c:	00001301 	0x1301
     440:	03000d16 	0x3000d16
     444:	3b0b3a0e 	xori	t3,t8,0x3a0e
     448:	38134905 	xori	s3,zero,0x4905
     44c:	1700000b 	bnez	t8,47c <ABIFlags_flags2+0x468>
     450:	0e03000d 	jal	80c0034 <__memory_size+0x80a0834>
     454:	053b0b3a 	0x53b0b3a
     458:	05381349 	0x5381349
     45c:	26180000 	addiu	t8,s0,0
     460:	00134900 	sll	t1,s3,0x4
     464:	01131900 	0x1131900
     468:	0b0b0e03 	j	c2c380c <__memory_size+0xc2a400c>
     46c:	053b0b3a 	0x53b0b3a
     470:	00001301 	0x1301
     474:	0b01131a 	j	c044c68 <__memory_size+0xc025468>
     478:	3b0b3a0b 	xori	t3,t8,0x3a0b
     47c:	00130105 	0x130105
     480:	01171b00 	0x1171b00
     484:	0b3a0b0b 	j	ce82c2c <__memory_size+0xce6342c>
     488:	1301053b 	beq	t8,at,1978 <ABIFlags_flags2+0x1964>
     48c:	0d1c0000 	jal	4700000 <__memory_size+0x46e0800>
     490:	3a0e0300 	xori	t6,s0,0x300
     494:	49053b0b 	bc2t	$cc1,f0c4 <ABIFlags_flags2+0xf0b0>
     498:	1d000013 	bgtz	t0,4e8 <ABIFlags_flags2+0x4d4>
     49c:	19270115 	0x19270115
     4a0:	00001301 	0x1301
     4a4:	0300341e 	0x300341e
     4a8:	3b0b3a0e 	xori	t3,t8,0x3a0e
     4ac:	0213490b 	0x213490b
     4b0:	1f000018 	bgtz	t8,514 <ABIFlags_flags2+0x500>
     4b4:	0e030034 	jal	80c00d0 <__memory_size+0x80a08d0>
     4b8:	053b0b3a 	0x53b0b3a
     4bc:	193f1349 	0x193f1349
     4c0:	00001802 	srl	v1,zero,0x0
     4c4:	01110100 	0x1110100
     4c8:	0b130e25 	j	c4c3894 <__memory_size+0xc4a4094>
     4cc:	01110e03 	0x1110e03
     4d0:	17100612 	bne	t8,s0,1d1c <ABIFlags_flags2+0x1d08>
     4d4:	24020000 	li	v0,0
     4d8:	3e0b0b00 	0x3e0b0b00
     4dc:	000e030b 	0xe030b
     4e0:	00160300 	sll	zero,s6,0xc
     4e4:	0b3a0e03 	j	ce8380c <__memory_size+0xce6400c>
     4e8:	13490b3b 	beq	k0,t1,31d8 <ABIFlags_flags2+0x31c4>
     4ec:	24040000 	li	a0,0
     4f0:	3e0b0b00 	0x3e0b0b00
     4f4:	0008030b 	0x8030b
     4f8:	00160500 	sll	zero,s6,0x14
     4fc:	0b3a0e03 	j	ce8380c <__memory_size+0xce6400c>
     500:	1349053b 	beq	k0,t1,19f0 <ABIFlags_flags2+0x19dc>
     504:	17060000 	bne	t8,a2,508 <ABIFlags_flags2+0x4f4>
     508:	3a0b0b01 	xori	t3,s0,0xb01
     50c:	010b3b0b 	0x10b3b0b
     510:	07000013 	bltz	t8,560 <ABIFlags_flags2+0x54c>
     514:	0e03000d 	jal	80c0034 <__memory_size+0x80a0834>
     518:	0b3b0b3a 	j	cec2ce8 <__memory_size+0xcea34e8>
     51c:	00001349 	0x1349
     520:	49010108 	bc2t	944 <ABIFlags_flags2+0x930>
     524:	00130113 	0x130113
     528:	00210900 	0x210900
     52c:	0b2f1349 	j	cbc4d24 <__memory_size+0xcba5524>
     530:	130a0000 	beq	t8,t2,534 <ABIFlags_flags2+0x520>
     534:	3a0b0b01 	xori	t3,s0,0xb01
     538:	010b3b0b 	0x10b3b0b
     53c:	0b000013 	j	c00004c <__memory_size+0xbfe084c>
     540:	0e03000d 	jal	80c0034 <__memory_size+0x80a0834>
     544:	0b3b0b3a 	j	cec2ce8 <__memory_size+0xcea34e8>
     548:	0b381349 	j	ce04d24 <__memory_size+0xcde5524>
     54c:	0f0c0000 	jal	c300000 <__memory_size+0xc2e0800>
     550:	000b0b00 	sll	at,t3,0xc
     554:	01130d00 	0x1130d00
     558:	0b0b0e03 	j	c2c380c <__memory_size+0xc2a400c>
     55c:	0b3b0b3a 	j	cec2ce8 <__memory_size+0xcea34e8>
     560:	00001301 	0x1301
     564:	03000d0e 	0x3000d0e
     568:	3b0b3a08 	xori	t3,t8,0x3a08
     56c:	3813490b 	xori	s3,zero,0x490b
     570:	0f00000b 	jal	c00002c <__memory_size+0xbfe082c>
     574:	0b0b000f 	j	c2c003c <__memory_size+0xc2a083c>
     578:	00001349 	0x1349
     57c:	03011310 	0x3011310
     580:	3a050b0e 	xori	a1,s0,0xb0e
     584:	010b3b0b 	0x10b3b0b
     588:	11000013 	beqz	t0,5d8 <ABIFlags_flags2+0x5c4>
     58c:	0e03000d 	jal	80c0034 <__memory_size+0x80a0834>
     590:	0b3b0b3a 	j	cec2ce8 <__memory_size+0xcea34e8>
     594:	05381349 	0x5381349
     598:	15120000 	bne	t0,s2,59c <ABIFlags_flags2+0x588>
     59c:	00192700 	sll	a0,t9,0x1c
     5a0:	01151300 	0x1151300
     5a4:	13491927 	beq	k0,t1,6a44 <ABIFlags_flags2+0x6a30>
     5a8:	00001301 	0x1301
     5ac:	49000514 	bc2f	1a00 <ABIFlags_flags2+0x19ec>
     5b0:	15000013 	bnez	t0,600 <ABIFlags_flags2+0x5ec>
     5b4:	0e030113 	jal	80c044c <__memory_size+0x80a0c4c>
     5b8:	0b3a050b 	j	ce8142c <__memory_size+0xce61c2c>
     5bc:	1301053b 	beq	t8,at,1aac <ABIFlags_flags2+0x1a98>
     5c0:	0d160000 	jal	4580000 <__memory_size+0x4560800>
     5c4:	3a0e0300 	xori	t6,s0,0x300
     5c8:	49053b0b 	bc2t	$cc1,f1f8 <ABIFlags_flags2+0xf1e4>
     5cc:	000b3813 	0xb3813
     5d0:	000d1700 	sll	v0,t5,0x1c
     5d4:	0b3a0e03 	j	ce8380c <__memory_size+0xce6400c>
     5d8:	1349053b 	beq	k0,t1,1ac8 <ABIFlags_flags2+0x1ab4>
     5dc:	00000538 	0x538
     5e0:	49002618 	bc2f	9e44 <ABIFlags_flags2+0x9e30>
     5e4:	19000013 	blez	t0,634 <ABIFlags_flags2+0x620>
     5e8:	0e030113 	jal	80c044c <__memory_size+0x80a0c4c>
     5ec:	0b3a0b0b 	j	ce82c2c <__memory_size+0xce6342c>
     5f0:	1301053b 	beq	t8,at,1ae0 <ABIFlags_flags2+0x1acc>
     5f4:	131a0000 	beq	t8,k0,5f8 <ABIFlags_flags2+0x5e4>
     5f8:	3a0b0b01 	xori	t3,s0,0xb01
     5fc:	01053b0b 	0x1053b0b
     600:	1b000013 	blez	t8,650 <ABIFlags_flags2+0x63c>
     604:	0b0b0117 	j	c2c045c <__memory_size+0xc2a0c5c>
     608:	053b0b3a 	0x53b0b3a
     60c:	00001301 	0x1301
     610:	03000d1c 	0x3000d1c
     614:	3b0b3a0e 	xori	t3,t8,0x3a0e
     618:	00134905 	0x134905
     61c:	01151d00 	0x1151d00
     620:	13011927 	beq	t8,at,6ac0 <ABIFlags_flags2+0x6aac>
     624:	041e0000 	0x41e0000
     628:	0b0e0301 	j	c380c04 <__memory_size+0xc361404>
     62c:	3b0b3a0b 	xori	t3,t8,0x3a0b
     630:	0013010b 	0x13010b
     634:	00281f00 	0x281f00
     638:	0d1c0e03 	jal	470380c <__memory_size+0x46e400c>
     63c:	2e200000 	sltiu	zero,s1,0
     640:	03193f01 	0x3193f01
     644:	3b0b3a0e 	xori	t3,t8,0x3a0e
     648:	4919270b 	bc2t	$cc6,a278 <ABIFlags_flags2+0xa264>
     64c:	12011113 	beq	s0,at,4a9c <ABIFlags_flags2+0x4a88>
     650:	97184006 	lhu	t8,16390(t8)
     654:	13011942 	beq	t8,at,6b60 <ABIFlags_flags2+0x6b4c>
     658:	05210000 	bgez	t1,65c <ABIFlags_flags2+0x648>
     65c:	3a0e0300 	xori	t6,s0,0x300
     660:	490b3b0b 	bc2tl	$cc2,f290 <ABIFlags_flags2+0xf27c>
     664:	00170213 	0x170213
     668:	00052200 	sll	a0,a1,0x8
     66c:	0b3a0803 	j	ce8200c <__memory_size+0xce6280c>
     670:	13490b3b 	beq	k0,t1,3360 <ABIFlags_flags2+0x334c>
     674:	00001702 	srl	v0,zero,0x1c
     678:	03003423 	0x3003423
     67c:	3b0b3a0e 	xori	t3,t8,0x3a0e
     680:	0213490b 	0x213490b
     684:	24000017 	li	zero,23
     688:	08030034 	j	c00d0 <__memory_size+0xa08d0>
     68c:	0b3b0b3a 	j	cec2ce8 <__memory_size+0xcea34e8>
     690:	17021349 	bne	t8,v0,53b8 <ABIFlags_flags2+0x53a4>
     694:	89250000 	lwl	a1,0(t1)
     698:	11010182 	beq	t0,at,ca4 <ABIFlags_flags2+0xc90>
     69c:	00133101 	0x133101
     6a0:	828a2600 	lb	t2,9728(s4)
     6a4:	18020001 	0x18020001
     6a8:	00184291 	0x184291
     6ac:	00342700 	0x342700
     6b0:	0b3a0e03 	j	ce8380c <__memory_size+0xce6400c>
     6b4:	1349053b 	beq	k0,t1,1ba4 <ABIFlags_flags2+0x1b90>
     6b8:	193c193f 	0x193c193f
     6bc:	2e280000 	sltiu	t0,s1,0
     6c0:	03193f01 	0x3193f01
     6c4:	3b0b3a0e 	xori	t3,t8,0x3a0e
     6c8:	4919270b 	bc2t	$cc6,a2f8 <ABIFlags_flags2+0xa2e4>
     6cc:	00193c13 	0x193c13
     6d0:	11010000 	beq	t0,at,6d4 <ABIFlags_flags2+0x6c0>
     6d4:	130e2501 	beq	t8,t6,9adc <ABIFlags_flags2+0x9ac8>
     6d8:	110e030b 	beq	t0,t6,1308 <ABIFlags_flags2+0x12f4>
     6dc:	10061201 	beq	zero,a2,4ee4 <ABIFlags_flags2+0x4ed0>
     6e0:	02000017 	0x2000017
     6e4:	0b0b0024 	j	c2c0090 <__memory_size+0xc2a0890>
     6e8:	0e030b3e 	jal	80c2cf8 <__memory_size+0x80a34f8>
     6ec:	24030000 	li	v1,0
     6f0:	3e0b0b00 	0x3e0b0b00
     6f4:	0008030b 	0x8030b
     6f8:	00160400 	sll	zero,s6,0x10
     6fc:	0b3a0e03 	j	ce8380c <__memory_size+0xce6400c>
     700:	13490b3b 	beq	k0,t1,33f0 <ABIFlags_flags2+0x33dc>
     704:	16050000 	bne	s0,a1,708 <ABIFlags_flags2+0x6f4>
     708:	3a0e0300 	xori	t6,s0,0x300
     70c:	49053b0b 	bc2t	$cc1,f33c <ABIFlags_flags2+0xf328>
     710:	06000013 	bltz	s0,760 <ABIFlags_flags2+0x74c>
     714:	0b0b0117 	j	c2c045c <__memory_size+0xc2a0c5c>
     718:	0b3b0b3a 	j	cec2ce8 <__memory_size+0xcea34e8>
     71c:	00001301 	0x1301
     720:	03000d07 	0x3000d07
     724:	3b0b3a0e 	xori	t3,t8,0x3a0e
     728:	0013490b 	0x13490b
     72c:	01010800 	0x1010800
     730:	13011349 	beq	t8,at,5458 <ABIFlags_flags2+0x5444>
     734:	21090000 	addi	t1,t0,0
     738:	2f134900 	sltiu	s3,t8,18688
     73c:	0a00000b 	j	800002c <__memory_size+0x7fe082c>
     740:	0b0b0113 	j	c2c044c <__memory_size+0xc2a0c4c>
     744:	0b3b0b3a 	j	cec2ce8 <__memory_size+0xcea34e8>
     748:	00001301 	0x1301
     74c:	03000d0b 	0x3000d0b
     750:	3b0b3a0e 	xori	t3,t8,0x3a0e
     754:	3813490b 	xori	s3,zero,0x490b
     758:	0c00000b 	jal	2c <ABIFlags_flags2+0x18>
     75c:	0b0b000f 	j	c2c003c <__memory_size+0xc2a083c>
     760:	130d0000 	beq	t8,t5,764 <ABIFlags_flags2+0x750>
     764:	0b0e0301 	j	c380c04 <__memory_size+0xc361404>
     768:	3b0b3a0b 	xori	t3,t8,0x3a0b
     76c:	0013010b 	0x13010b
     770:	000d0e00 	sll	at,t5,0x18
     774:	0b3a0803 	j	ce8200c <__memory_size+0xce6280c>
     778:	13490b3b 	beq	k0,t1,3468 <ABIFlags_flags2+0x3454>
     77c:	00000b38 	0xb38
     780:	0b000f0f 	j	c003c3c <__memory_size+0xbfe443c>
     784:	0013490b 	0x13490b
     788:	01131000 	0x1131000
     78c:	050b0e03 	tltiu	t0,3587
     790:	0b3b0b3a 	j	cec2ce8 <__memory_size+0xcea34e8>
     794:	00001301 	0x1301
     798:	03000d11 	0x3000d11
     79c:	3b0b3a0e 	xori	t3,t8,0x3a0e
     7a0:	3813490b 	xori	s3,zero,0x490b
     7a4:	12000005 	beqz	s0,7bc <ABIFlags_flags2+0x7a8>
     7a8:	19270015 	0x19270015
     7ac:	15130000 	bne	t0,s3,7b0 <ABIFlags_flags2+0x79c>
     7b0:	49192701 	bc2t	$cc6,a3b8 <ABIFlags_flags2+0xa3a4>
     7b4:	00130113 	0x130113
     7b8:	00051400 	sll	v0,a1,0x10
     7bc:	00001349 	0x1349
     7c0:	03011315 	0x3011315
     7c4:	3a050b0e 	xori	a1,s0,0xb0e
     7c8:	01053b0b 	0x1053b0b
     7cc:	16000013 	bnez	s0,81c <ABIFlags_flags2+0x808>
     7d0:	0e03000d 	jal	80c0034 <__memory_size+0x80a0834>
     7d4:	053b0b3a 	0x53b0b3a
     7d8:	0b381349 	j	ce04d24 <__memory_size+0xcde5524>
     7dc:	0d170000 	jal	45c0000 <__memory_size+0x45a0800>
     7e0:	3a0e0300 	xori	t6,s0,0x300
     7e4:	49053b0b 	bc2t	$cc1,f414 <ABIFlags_flags2+0xf400>
     7e8:	00053813 	0x53813
     7ec:	00261800 	0x261800
     7f0:	00001349 	0x1349
     7f4:	03011319 	0x3011319
     7f8:	3a0b0b0e 	xori	t3,s0,0xb0e
     7fc:	01053b0b 	0x1053b0b
     800:	1a000013 	blez	s0,850 <ABIFlags_flags2+0x83c>
     804:	0b0b0113 	j	c2c044c <__memory_size+0xc2a0c4c>
     808:	053b0b3a 	0x53b0b3a
     80c:	00001301 	0x1301
     810:	0b01171b 	j	c045c6c <__memory_size+0xc02646c>
     814:	3b0b3a0b 	xori	t3,t8,0x3a0b
     818:	00130105 	0x130105
     81c:	000d1c00 	sll	v1,t5,0x10
     820:	0b3a0e03 	j	ce8380c <__memory_size+0xce6400c>
     824:	1349053b 	beq	k0,t1,1d14 <ABIFlags_flags2+0x1d00>
     828:	151d0000 	bne	t0,sp,82c <ABIFlags_flags2+0x818>
     82c:	01192701 	0x1192701
     830:	1e000013 	bgtz	s0,880 <ABIFlags_flags2+0x86c>
     834:	193f012e 	0x193f012e
     838:	0b3a0e03 	j	ce8380c <__memory_size+0xce6400c>
     83c:	19270b3b 	0x19270b3b
     840:	06120111 	bltzall	s0,c88 <ABIFlags_flags2+0xc74>
     844:	42961840 	c0	0x961840
     848:	00130119 	0x130119
     84c:	00051f00 	sll	v1,a1,0x1c
     850:	0b3a0e03 	j	ce8380c <__memory_size+0xce6400c>
     854:	13490b3b 	beq	k0,t1,3544 <ABIFlags_flags2+0x3530>
     858:	00001702 	srl	v0,zero,0x1c
     85c:	03000520 	0x3000520
     860:	3b0b3a08 	xori	t3,t8,0x3a08
     864:	0213490b 	0x213490b
     868:	21000017 	addi	zero,t0,23
     86c:	08030034 	j	c00d0 <__memory_size+0xa08d0>
     870:	0b3b0b3a 	j	cec2ce8 <__memory_size+0xcea34e8>
     874:	17021349 	bne	t8,v0,559c <ABIFlags_flags2+0x5588>
     878:	34220000 	ori	v0,at,0x0
     87c:	3a0e0300 	xori	t6,s0,0x300
     880:	490b3b0b 	bc2tl	$cc2,f4b0 <ABIFlags_flags2+0xf49c>
     884:	00170213 	0x170213
     888:	000a2300 	sll	a0,t2,0xc
     88c:	0b3a0e03 	j	ce8380c <__memory_size+0xce6400c>
     890:	00000b3b 	0xb3b
     894:	55010b24 	bnel	t0,at,3528 <ABIFlags_flags2+0x3514>
     898:	00130117 	0x130117
     89c:	82892500 	lb	t1,9472(s4)
     8a0:	01110101 	0x1110101
     8a4:	8a260000 	lwl	a2,0(s1)
     8a8:	02000182 	0x2000182
     8ac:	18429118 	0x18429118
     8b0:	89270000 	lwl	a3,0(t1)
     8b4:	11010182 	beq	t0,at,ec0 <ABIFlags_flags2+0xeac>
     8b8:	00133101 	0x133101
     8bc:	00342800 	0x342800
     8c0:	0b3a0e03 	j	ce8380c <__memory_size+0xce6400c>
     8c4:	13490b3b 	beq	k0,t1,35b4 <ABIFlags_flags2+0x35a0>
     8c8:	00000b1c 	0xb1c
     8cc:	03003429 	0x3003429
     8d0:	3b0b3a0e 	xori	t3,t8,0x3a0e
     8d4:	3f134905 	0x3f134905
     8d8:	00193c19 	0x193c19
     8dc:	012e2a00 	0x12e2a00
     8e0:	0e03193f 	jal	80c64fc <__memory_size+0x80a6cfc>
     8e4:	0b3b0b3a 	j	cec2ce8 <__memory_size+0xcea34e8>
     8e8:	193c1927 	0x193c1927
     8ec:	01000000 	0x1000000
     8f0:	0e250111 	jal	8940444 <__memory_size+0x8920c44>
     8f4:	0e030b13 	jal	80c2c4c <__memory_size+0x80a344c>
     8f8:	06120111 	bltzall	s0,d40 <ABIFlags_flags2+0xd2c>
     8fc:	00001710 	0x1710
     900:	0b002402 	j	c009008 <__memory_size+0xbfe9808>
     904:	030b3e0b 	0x30b3e0b
     908:	0300000e 	0x300000e
     90c:	0e030016 	jal	80c0058 <__memory_size+0x80a0858>
     910:	0b3b0b3a 	j	cec2ce8 <__memory_size+0xcea34e8>
     914:	00001349 	0x1349
     918:	0b002404 	j	c009010 <__memory_size+0xbfe9810>
     91c:	030b3e0b 	0x30b3e0b
     920:	05000008 	bltz	t0,944 <ABIFlags_flags2+0x930>
     924:	193f012e 	0x193f012e
     928:	0b3a0e03 	j	ce8380c <__memory_size+0xce6400c>
     92c:	19270b3b 	0x19270b3b
     930:	06120111 	bltzall	s0,d78 <ABIFlags_flags2+0xd64>
     934:	42971840 	c0	0x971840
     938:	00130119 	0x130119
     93c:	00050600 	sll	zero,a1,0x18
     940:	0b3a0e03 	j	ce8380c <__memory_size+0xce6400c>
     944:	13490b3b 	beq	k0,t1,3634 <ABIFlags_flags2+0x3620>
     948:	00001702 	srl	v0,zero,0x1c
     94c:	03003407 	0x3003407
     950:	3b0b3a0e 	xori	t3,t8,0x3a0e
     954:	0213490b 	0x213490b
     958:	08000018 	j	60 <ABIFlags_flags2+0x4c>
     95c:	08030034 	j	c00d0 <__memory_size+0xa08d0>
     960:	0b3b0b3a 	j	cec2ce8 <__memory_size+0xcea34e8>
     964:	18021349 	0x18021349
     968:	89090000 	lwl	t1,0(t0)
     96c:	11010182 	beq	t0,at,f78 <ABIFlags_flags2+0xf64>
     970:	01133101 	0x1133101
     974:	0a000013 	j	800004c <__memory_size+0x7fe084c>
     978:	0001828a 	0x1828a
     97c:	42911802 	c0	0x911802
     980:	0b000018 	j	c000060 <__memory_size+0xbfe0860>
     984:	00018289 	0x18289
     988:	13310111 	beq	t9,s1,dd0 <ABIFlags_flags2+0xdbc>
     98c:	010c0000 	0x10c0000
     990:	01134901 	0x1134901
     994:	0d000013 	jal	400004c <__memory_size+0x3fe084c>
     998:	00000021 	move	zero,zero
     99c:	0300340e 	0x300340e
     9a0:	3b0b3a0e 	xori	t3,t8,0x3a0e
     9a4:	3f13490b 	0x3f13490b
     9a8:	00193c19 	0x193c19
     9ac:	012e0f00 	0x12e0f00
     9b0:	0e03193f 	jal	80c64fc <__memory_size+0x80a6cfc>
     9b4:	0b3b0b3a 	j	cec2ce8 <__memory_size+0xcea34e8>
     9b8:	193c1927 	0x193c1927
     9bc:	00001301 	0x1301
     9c0:	49000510 	bc2f	1e04 <ABIFlags_flags2+0x1df0>
     9c4:	11000013 	beqz	t0,a14 <ABIFlags_flags2+0xa00>
     9c8:	193f002e 	0x193f002e
     9cc:	0b3a0e03 	j	ce8380c <__memory_size+0xce6400c>
     9d0:	19270b3b 	0x19270b3b
     9d4:	193c1349 	0x193c1349
     9d8:	01000000 	0x1000000
     9dc:	0e250111 	jal	8940444 <__memory_size+0x8920c44>
     9e0:	0e030b13 	jal	80c2c4c <__memory_size+0x80a344c>
     9e4:	06120111 	bltzall	s0,e2c <ABIFlags_flags2+0xe18>
     9e8:	00001710 	0x1710
     9ec:	03011302 	0x3011302
     9f0:	3a0b0b0e 	xori	t3,s0,0xb0e
     9f4:	010b3b0b 	0x10b3b0b
     9f8:	03000013 	mtlo	t8
     9fc:	0e03000d 	jal	80c0034 <__memory_size+0x80a0834>
     a00:	0b3b0b3a 	j	cec2ce8 <__memory_size+0xcea34e8>
     a04:	0b381349 	j	ce04d24 <__memory_size+0xcde5524>
     a08:	24040000 	li	a0,0
     a0c:	3e0b0b00 	0x3e0b0b00
     a10:	000e030b 	0xe030b
     a14:	012e0500 	0x12e0500
     a18:	0e03193f 	jal	80c64fc <__memory_size+0x80a6cfc>
     a1c:	0b3b0b3a 	j	cec2ce8 <__memory_size+0xcea34e8>
     a20:	01111927 	0x1111927
     a24:	18400612 	blez	v0,2270 <ABIFlags_flags2+0x225c>
     a28:	01194297 	0x1194297
     a2c:	06000013 	bltz	s0,a7c <ABIFlags_flags2+0xa68>
     a30:	08030005 	j	c0014 <__memory_size+0xa0814>
     a34:	0b3b0b3a 	j	cec2ce8 <__memory_size+0xcea34e8>
     a38:	18021349 	0x18021349
     a3c:	0f070000 	jal	c1c0000 <__memory_size+0xc1a0800>
     a40:	490b0b00 	bc2tl	$cc2,3644 <ABIFlags_flags2+0x3630>
     a44:	08000013 	j	4c <ABIFlags_flags2+0x38>
     a48:	13490101 	beq	k0,t1,e50 <ABIFlags_flags2+0xe3c>
     a4c:	00001301 	0x1301
     a50:	00002109 	0x2109
     a54:	00340a00 	0x340a00
     a58:	0b3a0e03 	j	ce8380c <__memory_size+0xce6400c>
     a5c:	13490b3b 	beq	k0,t1,374c <ABIFlags_flags2+0x3738>
     a60:	193c193f 	0x193c193f
     a64:	01000000 	0x1000000
     a68:	06100011 	bltzal	s0,ab0 <ABIFlags_flags2+0xa9c>
     a6c:	01120111 	0x1120111
     a70:	081b0803 	j	6c200c <__memory_size+0x6a280c>
     a74:	05130825 	bgezall	t0,2b0c <ABIFlags_flags2+0x2af8>
     a78:	01000000 	0x1000000
     a7c:	06100011 	bltzal	s0,ac4 <ABIFlags_flags2+0xab0>
     a80:	08030655 	j	c1954 <__memory_size+0xa2154>
     a84:	0825081b 	j	94206c <__memory_size+0x92286c>
     a88:	00000513 	0x513
     a8c:	01110100 	0x1110100
     a90:	0b130e25 	j	c4c3894 <__memory_size+0xc4a4094>
     a94:	01110e03 	0x1110e03
     a98:	17100612 	bne	t8,s0,22e4 <ABIFlags_flags2+0x22d0>
     a9c:	16020000 	bne	s0,v0,aa0 <ABIFlags_flags2+0xa8c>
     aa0:	3a0e0300 	xori	t6,s0,0x300
     aa4:	490b3b0b 	bc2tl	$cc2,f6d4 <ABIFlags_flags2+0xf6c0>
     aa8:	03000013 	mtlo	t8
     aac:	0b0b0024 	j	c2c0090 <__memory_size+0xc2a0890>
     ab0:	0e030b3e 	jal	80c2cf8 <__memory_size+0x80a34f8>
     ab4:	24040000 	li	a0,0
     ab8:	3e0b0b00 	0x3e0b0b00
     abc:	0008030b 	0x8030b
     ac0:	000f0500 	sll	zero,t7,0x14
     ac4:	00000b0b 	0xb0b
     ac8:	0b000f06 	j	c003c18 <__memory_size+0xbfe4418>
     acc:	0013490b 	0x13490b
     ad0:	00260700 	0x260700
     ad4:	00001349 	0x1349
     ad8:	00002608 	0x2608
     adc:	01130900 	0x1130900
     ae0:	0b0b0e03 	j	c2c380c <__memory_size+0xc2a400c>
     ae4:	0b3b0b3a 	j	cec2ce8 <__memory_size+0xcea34e8>
     ae8:	00001301 	0x1301
     aec:	03000d0a 	0x3000d0a
     af0:	3b0b3a08 	xori	t3,t8,0x3a08
     af4:	3813490b 	xori	s3,zero,0x490b
     af8:	0b00000b 	j	c00002c <__memory_size+0xbfe082c>
     afc:	0e03000d 	jal	80c0034 <__memory_size+0x80a0834>
     b00:	0b3b0b3a 	j	cec2ce8 <__memory_size+0xcea34e8>
     b04:	0b381349 	j	ce04d24 <__memory_size+0xcde5524>
     b08:	010c0000 	0x10c0000
     b0c:	01134901 	0x1134901
     b10:	0d000013 	jal	400004c <__memory_size+0x3fe084c>
     b14:	13490021 	beq	k0,t1,b9c <ABIFlags_flags2+0xb88>
     b18:	00000b2f 	0xb2f
     b1c:	03012e0e 	0x3012e0e
     b20:	3b0b3a0e 	xori	t3,t8,0x3a0e
     b24:	2019270b 	addi	t9,zero,9995
     b28:	0013010b 	0x13010b
     b2c:	00050f00 	sll	at,a1,0x1c
     b30:	0b3a0803 	j	ce8200c <__memory_size+0xce6280c>
     b34:	13490b3b 	beq	k0,t1,3824 <ABIFlags_flags2+0x3810>
     b38:	05100000 	bltzal	t0,b3c <ABIFlags_flags2+0xb28>
     b3c:	3a0e0300 	xori	t6,s0,0x300
     b40:	490b3b0b 	bc2tl	$cc2,f770 <ABIFlags_flags2+0xf75c>
     b44:	11000013 	beqz	t0,b94 <ABIFlags_flags2+0xb80>
     b48:	08030034 	j	c00d0 <__memory_size+0xa08d0>
     b4c:	0b3b0b3a 	j	cec2ce8 <__memory_size+0xcea34e8>
     b50:	00001349 	0x1349
     b54:	03003412 	0x3003412
     b58:	3b0b3a0e 	xori	t3,t8,0x3a0e
     b5c:	0013490b 	0x13490b
     b60:	00211300 	0x211300
     b64:	00001349 	0x1349
     b68:	31012e14 	andi	at,t0,0x2e14
     b6c:	12011113 	beq	s0,at,4fbc <ABIFlags_flags2+0x4fa8>
     b70:	97184006 	lhu	t8,16390(t8)
     b74:	13011942 	beq	t8,at,7080 <ABIFlags_flags2+0x706c>
     b78:	05150000 	0x5150000
     b7c:	02133100 	0x2133100
     b80:	16000017 	bnez	s0,be0 <ABIFlags_flags2+0xbcc>
     b84:	13310034 	beq	t9,s1,c58 <ABIFlags_flags2+0xc44>
     b88:	17021349 	bne	t8,v0,58b0 <ABIFlags_flags2+0x589c>
     b8c:	34170000 	li	s7,0x0
     b90:	02133100 	0x2133100
     b94:	18000017 	blez	zero,bf4 <ABIFlags_flags2+0xbe0>
     b98:	13310005 	beq	t9,s1,bb0 <ABIFlags_flags2+0xb9c>
     b9c:	00000b1c 	0xb1c
     ba0:	01828919 	0x1828919
     ba4:	31011101 	andi	at,t0,0x1101
     ba8:	00130113 	0x130113
     bac:	828a1a00 	lb	t2,6656(s4)
     bb0:	18020001 	0x18020001
     bb4:	00184291 	0x184291
     bb8:	82891b00 	lb	t1,6912(s4)
     bbc:	01110101 	0x1110101
     bc0:	00001331 	tgeu	zero,zero,0x4c
     bc4:	4900211c 	bc2f	9038 <ABIFlags_flags2+0x9024>
     bc8:	00182f13 	0x182f13
     bcc:	012e1d00 	0x12e1d00
     bd0:	0b3a0e03 	j	ce8380c <__memory_size+0xce6400c>
     bd4:	19270b3b 	0x19270b3b
     bd8:	06120111 	bltzall	s0,1020 <ABIFlags_flags2+0x100c>
     bdc:	42971840 	c0	0x971840
     be0:	00130119 	0x130119
     be4:	00051e00 	sll	v1,a1,0x18
     be8:	0b3a0803 	j	ce8200c <__memory_size+0xce6280c>
     bec:	13490b3b 	beq	k0,t1,38dc <ABIFlags_flags2+0x38c8>
     bf0:	00001702 	srl	v0,zero,0x1c
     bf4:	0300051f 	0x300051f
     bf8:	3b0b3a0e 	xori	t3,t8,0x3a0e
     bfc:	0213490b 	0x213490b
     c00:	20000017 	addi	zero,zero,23
     c04:	01018289 	0x1018289
     c08:	42950111 	c0	0x950111
     c0c:	00133119 	0x133119
     c10:	012e2100 	0x12e2100
     c14:	0b3a0e03 	j	ce8380c <__memory_size+0xce6400c>
     c18:	19270b3b 	0x19270b3b
     c1c:	0b201349 	j	c804d24 <__memory_size+0xc7e5524>
     c20:	00001301 	0x1301
     c24:	3f012e22 	0x3f012e22
     c28:	3a0e0319 	xori	t6,s0,0x319
     c2c:	270b3b0b 	addiu	t3,t8,15115
     c30:	12011119 	beq	s0,at,5098 <ABIFlags_flags2+0x5084>
     c34:	97184006 	lhu	t8,16390(t8)
     c38:	13011942 	beq	t8,at,7144 <ABIFlags_flags2+0x7130>
     c3c:	1d230000 	0x1d230000
     c40:	11133101 	beq	t0,s3,d048 <ABIFlags_flags2+0xd034>
     c44:	58061201 	0x58061201
     c48:	010b590b 	0x10b590b
     c4c:	24000013 	li	zero,19
     c50:	0111010b 	0x111010b
     c54:	00000612 	0x612
     c58:	31003425 	andi	zero,t0,0x3425
     c5c:	00180213 	0x180213
     c60:	82892600 	lb	t1,9728(s4)
     c64:	01110001 	movt	zero,t0,$fcc4
     c68:	00001331 	tgeu	zero,zero,0x4c
     c6c:	00002127 	0x2127
     c70:	00342800 	0x342800
     c74:	0b3a0e03 	j	ce8380c <__memory_size+0xce6400c>
     c78:	13490b3b 	beq	k0,t1,3968 <ABIFlags_flags2+0x3954>
     c7c:	193c193f 	0x193c193f
     c80:	2e290000 	sltiu	t1,s1,0
     c84:	03193f01 	0x3193f01
     c88:	3b0b3a0e 	xori	t3,t8,0x3a0e
     c8c:	4919270b 	bc2t	$cc6,a8bc <ABIFlags_flags2+0xa8a8>
     c90:	01193c13 	0x1193c13
     c94:	2a000013 	slti	zero,s0,19
     c98:	13490005 	beq	k0,t1,cb0 <ABIFlags_flags2+0xc9c>
     c9c:	2e2b0000 	sltiu	t3,s1,0
     ca0:	03193f00 	0x3193f00
     ca4:	3b0b3a0e 	xori	t3,t8,0x3a0e
     ca8:	4919270b 	bc2t	$cc6,a8d8 <ABIFlags_flags2+0xa8c4>
     cac:	00193c13 	0x193c13
     cb0:	012e2c00 	0x12e2c00
     cb4:	0e03193f 	jal	80c64fc <__memory_size+0x80a6cfc>
     cb8:	0b3b0b3a 	j	cec2ce8 <__memory_size+0xcea34e8>
     cbc:	193c1927 	0x193c1927
     cc0:	01000000 	0x1000000
     cc4:	06100011 	bltzal	s0,d0c <ABIFlags_flags2+0xcf8>
     cc8:	01120111 	0x1120111
     ccc:	081b0803 	j	6c200c <__memory_size+0x6a280c>
     cd0:	05130825 	bgezall	t0,2d68 <ABIFlags_flags2+0x2d54>
     cd4:	01000000 	0x1000000
     cd8:	0e250111 	jal	8940444 <__memory_size+0x8920c44>
     cdc:	0e030b13 	jal	80c2c4c <__memory_size+0x80a344c>
     ce0:	00001710 	0x1710
     ce4:	0b002402 	j	c009008 <__memory_size+0xbfe9808>
     ce8:	030b3e0b 	0x30b3e0b
     cec:	0300000e 	0x300000e
     cf0:	0b0b0024 	j	c2c0090 <__memory_size+0xc2a0890>
     cf4:	08030b3e 	j	c2cf8 <__memory_size+0xa34f8>
     cf8:	01000000 	0x1000000
     cfc:	0e250111 	jal	8940444 <__memory_size+0x8920c44>
     d00:	0e030b13 	jal	80c2c4c <__memory_size+0x80a344c>
     d04:	06120111 	bltzall	s0,114c <ABIFlags_flags2+0x1138>
     d08:	00001710 	0x1710
     d0c:	0b002402 	j	c009008 <__memory_size+0xbfe9808>
     d10:	030b3e0b 	0x30b3e0b
     d14:	0300000e 	0x300000e
     d18:	0e030016 	jal	80c0058 <__memory_size+0x80a0858>
     d1c:	0b3b0b3a 	j	cec2ce8 <__memory_size+0xcea34e8>
     d20:	00001349 	0x1349
     d24:	0b002404 	j	c009010 <__memory_size+0xbfe9810>
     d28:	030b3e0b 	0x30b3e0b
     d2c:	05000008 	bltz	t0,d50 <ABIFlags_flags2+0xd3c>
     d30:	0b0b000f 	j	c2c003c <__memory_size+0xc2a083c>
     d34:	2e060000 	sltiu	a2,s0,0
     d38:	03193f01 	0x3193f01
     d3c:	3b0b3a0e 	xori	t3,t8,0x3a0e
     d40:	4919270b 	bc2t	$cc6,a970 <ABIFlags_flags2+0xa95c>
     d44:	12011113 	beq	s0,at,5194 <ABIFlags_flags2+0x5180>
     d48:	97184006 	lhu	t8,16390(t8)
     d4c:	13011942 	beq	t8,at,7258 <ABIFlags_flags2+0x7244>
     d50:	05070000 	aclr	0x0,0(t0)
     d54:	3a080300 	xori	t0,s0,0x300
     d58:	490b3b0b 	bc2tl	$cc2,f988 <ABIFlags_flags2+0xf974>
     d5c:	00170213 	0x170213
     d60:	00050800 	sll	at,a1,0x0
     d64:	0b3a0e03 	j	ce8380c <__memory_size+0xce6400c>
     d68:	13490b3b 	beq	k0,t1,3a58 <ABIFlags_flags2+0x3a44>
     d6c:	00001702 	srl	v0,zero,0x1c
     d70:	03003409 	jalr.hb	a2,t8
     d74:	3b0b3a0e 	xori	t3,t8,0x3a0e
     d78:	0213490b 	0x213490b
     d7c:	0a000018 	j	8000060 <__memory_size+0x7fe0860>
     d80:	08030034 	j	c00d0 <__memory_size+0xa08d0>
     d84:	0b3b0b3a 	j	cec2ce8 <__memory_size+0xcea34e8>
     d88:	18021349 	0x18021349
     d8c:	0b0b0000 	j	c2c0000 <__memory_size+0xc2a0800>
     d90:	12011101 	beq	s0,at,5198 <ABIFlags_flags2+0x5184>
     d94:	0c000006 	jal	18 <ABIFlags_flags2+0x4>
     d98:	00018289 	0x18289
     d9c:	13310111 	beq	t9,s1,11e4 <ABIFlags_flags2+0x11d0>
     da0:	350d0000 	ori	t5,t0,0x0
     da4:	00134900 	sll	t1,s3,0x4
     da8:	002e0e00 	0x2e0e00
     dac:	0e03193f 	jal	80c64fc <__memory_size+0x80a6cfc>
     db0:	0b3b0b3a 	j	cec2ce8 <__memory_size+0xcea34e8>
     db4:	13491927 	beq	k0,t1,7254 <ABIFlags_flags2+0x7240>
     db8:	0000193c 	0x193c
     dbc:	0b000f0f 	j	c003c3c <__memory_size+0xbfe443c>
     dc0:	0013490b 	0x13490b
     dc4:	11010000 	beq	t0,at,dc8 <ABIFlags_flags2+0xdb4>
     dc8:	130e2501 	beq	t8,t6,a1d0 <ABIFlags_flags2+0xa1bc>
     dcc:	110e030b 	beq	t0,t6,19fc <ABIFlags_flags2+0x19e8>
     dd0:	10061201 	beq	zero,a2,55d8 <ABIFlags_flags2+0x55c4>
     dd4:	02000017 	0x2000017
     dd8:	0b0b0024 	j	c2c0090 <__memory_size+0xc2a0890>
     ddc:	0e030b3e 	jal	80c2cf8 <__memory_size+0x80a34f8>
     de0:	16030000 	bne	s0,v1,de4 <ABIFlags_flags2+0xdd0>
     de4:	3a0e0300 	xori	t6,s0,0x300
     de8:	490b3b0b 	bc2tl	$cc2,fa18 <ABIFlags_flags2+0xfa04>
     dec:	04000013 	bltz	zero,e3c <ABIFlags_flags2+0xe28>
     df0:	0b0b0024 	j	c2c0090 <__memory_size+0xc2a0890>
     df4:	08030b3e 	j	c2cf8 <__memory_size+0xa34f8>
     df8:	13050000 	beq	t8,a1,dfc <ABIFlags_flags2+0xde8>
     dfc:	0b0e0301 	j	c380c04 <__memory_size+0xc361404>
     e00:	3b0b3a0b 	xori	t3,t8,0x3a0b
     e04:	0013010b 	0x13010b
     e08:	000d0600 	sll	zero,t5,0x18
     e0c:	0b3a0803 	j	ce8200c <__memory_size+0xce6280c>
     e10:	13490b3b 	beq	k0,t1,3b00 <ABIFlags_flags2+0x3aec>
     e14:	00000b38 	0xb38
     e18:	03000d07 	0x3000d07
     e1c:	3b0b3a0e 	xori	t3,t8,0x3a0e
     e20:	3813490b 	xori	s3,zero,0x490b
     e24:	0800000b 	j	2c <ABIFlags_flags2+0x18>
     e28:	13490101 	beq	k0,t1,1230 <ABIFlags_flags2+0x121c>
     e2c:	00001301 	0x1301
     e30:	49002109 	bc2f	9258 <ABIFlags_flags2+0x9244>
     e34:	000b2f13 	0xb2f13
     e38:	000f0a00 	sll	at,t7,0x8
     e3c:	00000b0b 	0xb0b
     e40:	3f012e0b 	0x3f012e0b
     e44:	3a0e0319 	xori	t6,s0,0x319
     e48:	270b3b0b 	addiu	t3,t8,15115
     e4c:	11134919 	beq	t0,s3,132b4 <ABIFlags_flags2+0x132a0>
     e50:	40061201 	0x40061201
     e54:	19429718 	0x19429718
     e58:	00001301 	0x1301
     e5c:	0300050c 	syscall	0xc0014
     e60:	3b0b3a08 	xori	t3,t8,0x3a08
     e64:	0213490b 	0x213490b
     e68:	0d000017 	jal	400005c <__memory_size+0x3fe085c>
     e6c:	0e030034 	jal	80c00d0 <__memory_size+0x80a08d0>
     e70:	0b3b0b3a 	j	cec2ce8 <__memory_size+0xcea34e8>
     e74:	18021349 	0x18021349
     e78:	340e0000 	li	t6,0x0
     e7c:	3a080300 	xori	t0,s0,0x300
     e80:	490b3b0b 	bc2tl	$cc2,fab0 <ABIFlags_flags2+0xfa9c>
     e84:	00180213 	0x180213
     e88:	000f0f00 	sll	at,t7,0x1c
     e8c:	13490b0b 	beq	k0,t1,3abc <ABIFlags_flags2+0x3aa8>
     e90:	01000000 	0x1000000
     e94:	0e250111 	jal	8940444 <__memory_size+0x8920c44>
     e98:	0e030b13 	jal	80c2c4c <__memory_size+0x80a344c>
     e9c:	06120111 	bltzall	s0,12e4 <ABIFlags_flags2+0x12d0>
     ea0:	00001710 	0x1710
     ea4:	0b002402 	j	c009008 <__memory_size+0xbfe9808>
     ea8:	030b3e0b 	0x30b3e0b
     eac:	03000008 	jr	t8
     eb0:	0b0b0024 	j	c2c0090 <__memory_size+0xc2a0890>
     eb4:	0e030b3e 	jal	80c2cf8 <__memory_size+0x80a34f8>
     eb8:	16040000 	bne	s0,a0,ebc <ABIFlags_flags2+0xea8>
     ebc:	3a0e0300 	xori	t6,s0,0x300
     ec0:	490b3b0b 	bc2tl	$cc2,faf0 <ABIFlags_flags2+0xfadc>
     ec4:	05000013 	bltz	t0,f14 <ABIFlags_flags2+0xf00>
     ec8:	0e030016 	jal	80c0058 <__memory_size+0x80a0858>
     ecc:	053b0b3a 	0x53b0b3a
     ed0:	00001349 	0x1349
     ed4:	0b011706 	j	c045c18 <__memory_size+0xc026418>
     ed8:	3b0b3a0b 	xori	t3,t8,0x3a0b
     edc:	0013010b 	0x13010b
     ee0:	000d0700 	sll	zero,t5,0x1c
     ee4:	0b3a0e03 	j	ce8380c <__memory_size+0xce6400c>
     ee8:	13490b3b 	beq	k0,t1,3bd8 <ABIFlags_flags2+0x3bc4>
     eec:	01080000 	0x1080000
     ef0:	01134901 	0x1134901
     ef4:	09000013 	j	400004c <__memory_size+0x3fe084c>
     ef8:	13490021 	beq	k0,t1,f80 <ABIFlags_flags2+0xf6c>
     efc:	00000b2f 	0xb2f
     f00:	0b01130a 	j	c044c28 <__memory_size+0xc025428>
     f04:	3b0b3a0b 	xori	t3,t8,0x3a0b
     f08:	0013010b 	0x13010b
     f0c:	000d0b00 	sll	at,t5,0xc
     f10:	0b3a0e03 	j	ce8380c <__memory_size+0xce6400c>
     f14:	13490b3b 	beq	k0,t1,3c04 <ABIFlags_flags2+0x3bf0>
     f18:	00000b38 	0xb38
     f1c:	0b000f0c 	j	c003c30 <__memory_size+0xbfe4430>
     f20:	0d00000b 	jal	400002c <__memory_size+0x3fe082c>
     f24:	0e030113 	jal	80c044c <__memory_size+0x80a0c4c>
     f28:	0b3a0b0b 	j	ce82c2c <__memory_size+0xce6342c>
     f2c:	13010b3b 	beq	t8,at,3c1c <ABIFlags_flags2+0x3c08>
     f30:	0d0e0000 	jal	4380000 <__memory_size+0x4360800>
     f34:	3a080300 	xori	t0,s0,0x300
     f38:	490b3b0b 	bc2tl	$cc2,fb68 <ABIFlags_flags2+0xfb54>
     f3c:	000b3813 	0xb3813
     f40:	000f0f00 	sll	at,t7,0x1c
     f44:	13490b0b 	beq	k0,t1,3b74 <ABIFlags_flags2+0x3b60>
     f48:	13100000 	beq	t8,s0,f4c <ABIFlags_flags2+0xf38>
     f4c:	0b0e0301 	j	c380c04 <__memory_size+0xc361404>
     f50:	3b0b3a05 	xori	t3,t8,0x3a05
     f54:	0013010b 	0x13010b
     f58:	000d1100 	sll	v0,t5,0x4
     f5c:	0b3a0e03 	j	ce8380c <__memory_size+0xce6400c>
     f60:	13490b3b 	beq	k0,t1,3c50 <ABIFlags_flags2+0x3c3c>
     f64:	00000538 	0x538
     f68:	27001512 	addiu	zero,t8,5394
     f6c:	13000019 	beqz	t8,fd4 <ABIFlags_flags2+0xfc0>
     f70:	19270115 	0x19270115
     f74:	13011349 	beq	t8,at,5c9c <ABIFlags_flags2+0x5c88>
     f78:	05140000 	0x5140000
     f7c:	00134900 	sll	t1,s3,0x4
     f80:	01131500 	0x1131500
     f84:	050b0e03 	tltiu	t0,3587
     f88:	053b0b3a 	0x53b0b3a
     f8c:	00001301 	0x1301
     f90:	03000d16 	0x3000d16
     f94:	3b0b3a0e 	xori	t3,t8,0x3a0e
     f98:	38134905 	xori	s3,zero,0x4905
     f9c:	1700000b 	bnez	t8,fcc <ABIFlags_flags2+0xfb8>
     fa0:	0e03000d 	jal	80c0034 <__memory_size+0x80a0834>
     fa4:	053b0b3a 	0x53b0b3a
     fa8:	05381349 	0x5381349
     fac:	26180000 	addiu	t8,s0,0
     fb0:	00134900 	sll	t1,s3,0x4
     fb4:	01131900 	0x1131900
     fb8:	0b0b0e03 	j	c2c380c <__memory_size+0xc2a400c>
     fbc:	053b0b3a 	0x53b0b3a
     fc0:	00001301 	0x1301
     fc4:	0b01131a 	j	c044c68 <__memory_size+0xc025468>
     fc8:	3b0b3a0b 	xori	t3,t8,0x3a0b
     fcc:	00130105 	0x130105
     fd0:	01171b00 	0x1171b00
     fd4:	0b3a0b0b 	j	ce82c2c <__memory_size+0xce6342c>
     fd8:	1301053b 	beq	t8,at,24c8 <ABIFlags_flags2+0x24b4>
     fdc:	0d1c0000 	jal	4700000 <__memory_size+0x46e0800>
     fe0:	3a0e0300 	xori	t6,s0,0x300
     fe4:	49053b0b 	bc2t	$cc1,fc14 <ABIFlags_flags2+0xfc00>
     fe8:	1d000013 	bgtz	t0,1038 <ABIFlags_flags2+0x1024>
     fec:	19270115 	0x19270115
     ff0:	00001301 	0x1301
     ff4:	3f002e1e 	0x3f002e1e
     ff8:	3a0e0319 	xori	t6,s0,0x319
     ffc:	270b3b0b 	addiu	t3,t8,15115
    1000:	11134919 	beq	t0,s3,13468 <ABIFlags_flags2+0x13454>
    1004:	40061201 	0x40061201
    1008:	19429718 	0x19429718
    100c:	341f0000 	li	ra,0x0
    1010:	3a0e0300 	xori	t6,s0,0x300
    1014:	49053b0b 	bc2t	$cc1,fc44 <ABIFlags_flags2+0xfc30>
    1018:	3c193f13 	lui	t9,0x3f13
    101c:	00000019 	multu	zero,zero

Disassembly of section .debug_line:

00000000 <.debug_line>:
       0:	000000da 	0xda
       4:	00440002 	0x440002
       8:	01010000 	0x1010000
       c:	000d0efb 	0xd0efb
      10:	01010101 	0x1010101
      14:	01000000 	0x1000000
      18:	2f010000 	sltiu	at,t8,0
      1c:	72657375 	q16slr	xr13,xr12,xr5,xr9,9
      20:	70696d2f 	0x70696d2f
      24:	74777373 	jalx	1ddcdcc <__memory_size+0x1dbd5cc>
      28:	7469672f 	jalx	1a59cbc <__memory_size+0x1a3a4bc>
      2c:	77656e2f 	jalx	d95b8bc <__memory_size+0xd93c0bc>
      30:	2f62696c 	sltiu	v0,k1,26988
      34:	6762696c 	0x6762696c
      38:	73736f6c 	s16ldi	xr13,k1,438,ptn2
      3c:	70696d2f 	0x70696d2f
      40:	63000073 	0x63000073
      44:	2e307472 	sltiu	s0,s1,29810
      48:	00010053 	0x10053
      4c:	05000000 	bltz	t0,50 <ABIFlags_flags2+0x3c>
      50:	00021802 	srl	v1,v0,0x0
      54:	00c90380 	0xc90380
      58:	4a210301 	c2	0x210301
      5c:	134b4b83 	beq	k0,t3,12e6c <ABIFlags_flags2+0x12e58>
      60:	4b838389 	c2	0x1838389
      64:	4b4b8583 	c2	0x14b8583
      68:	4e838350 	c3	0x838350
      6c:	134b4b85 	beq	k0,t3,12e84 <ABIFlags_flags2+0x12e70>
      70:	134c4b83 	beq	k0,t4,12e80 <ABIFlags_flags2+0x12e6c>
      74:	4b4b4d83 	c2	0x14b4d83
      78:	4b4d8313 	c2	0x14d8313
      7c:	4d83134b 	0x4d83134b
      80:	83134b4b 	lb	s3,19275(t8)
      84:	134b4b4d 	beq	k0,t3,12dbc <ABIFlags_flags2+0x12da8>
      88:	144d4b83 	bne	v0,t5,12e98 <ABIFlags_flags2+0x12e84>
      8c:	4d4b5188 	0x4d4b5188
      90:	bb508383 	swr	s0,-31869(k0)
      94:	4a0b0384 	c2	0xb0384
      98:	4b8483bb 	c2	0x18483bb
      9c:	84838513 	lh	v1,-31469(a0)
      a0:	864b4b83 	lh	t3,19331(s2)
      a4:	4f4b834b 	c3	0x14b834b
      a8:	4a0f034b 	c2	0xf034b
      ac:	83848383 	lb	a0,-31869(gp)
      b0:	03838483 	0x3838483
      b4:	8385820b 	lb	a1,-32245(gp)
      b8:	154b4b4b 	bne	t2,t3,12de8 <ABIFlags_flags2+0x12dd4>
      bc:	be138584 	cache	0x13,-31356(s0)
      c0:	85838383 	lh	v1,-31869(t4)
      c4:	4b4b4b4b 	c2	0x14b4b4b
      c8:	0313854d 	break	0x313,0x215
      cc:	03838219 	0x3838219
      d0:	83834a11 	lb	v1,18961(gp)
      d4:	85158386 	lh	s5,-31866(t0)
      d8:	0008024b 	0x8024b
      dc:	01200101 	0x1200101
      e0:	00020000 	sll	zero,v0,0x0
      e4:	0000004a 	0x4a
      e8:	0efb0101 	jal	bec0404 <__memory_size+0xbea0c04>
      ec:	0101000d 	break	0x101
      f0:	00000101 	0x101
      f4:	00000100 	sll	zero,zero,0x4
      f8:	6f620001 	0x6f620001
      fc:	532e746f 	beql	t9,t6,1d2bc <ABIFlags_flags2+0x1d2a8>
     100:	00000000 	nop
     104:	74696e69 	jalx	1a5b9a4 <__memory_size+0x1a3c1a4>
     108:	6361635f 	0x6361635f
     10c:	2e736568 	sltiu	s3,s3,25960
     110:	00000053 	mtlhx	zero
     114:	696e6900 	0x696e6900
     118:	70635f74 	q16sll	xr13,xr7,xr13,xr8,1
     11c:	00532e30 	tge	v0,s3,0xb8
     120:	69000000 	0x69000000
     124:	5f74696e 	0x5f74696e
     128:	2e626c74 	sltiu	v0,s3,27764
     12c:	00000053 	mtlhx	zero
     130:	05000000 	bltz	t0,134 <ABIFlags_flags2+0x120>
     134:	c0000002 	ll	zero,2(zero)
     138:	00c0039f 	0xc0039f
     13c:	4b4b8301 	c2	0x14b8301
     140:	4b4a0903 	c2	0x14a0903
     144:	504b4b4b 	beql	v0,t3,12e74 <ABIFlags_flags2+0x12e60>
     148:	834e4b83 	lb	t6,19331(k0)
     14c:	4b834e4b 	c2	0x1834e4b
     150:	4b4b834f 	c2	0x14b834f
     154:	4b834e4b 	c2	0x1834e4b
     158:	834b834e 	lb	t3,-31922(k0)
     15c:	4b504e4b 	c2	0x1504e4b
     160:	b8030204 	swr	v1,516(zero)
     164:	4d4d4a7f 	0x4d4d4a7f
     168:	4c4b4c4b 	0x4c4b4c4b
     16c:	4b4d4b4b 	c2	0x14d4b4b
     170:	4b4d4c4c 	c2	0x14d4c4c
     174:	4b4b4f4c 	c2	0x14b4f4c
     178:	034b4e4b 	0x34b4e4b
     17c:	4d4d4a09 	0x4d4d4a09
     180:	4c4b4c4b 	0x4c4b4c4b
     184:	4b4d4b4b 	c2	0x14d4b4b
     188:	4b4d4c4c 	c2	0x14d4c4c
     18c:	504c4b4b 	beql	v0,t4,12ebc <ABIFlags_flags2+0x12ea8>
     190:	4d4b4c4b 	0x4d4b4c4b
     194:	4b4b504b 	c2	0x14b504b
     198:	044b4b4b 	tltiu	v0,19275
     19c:	026e0301 	0x26e0301
     1a0:	4b01018c 	c2	0x101018c
     1a4:	4b157c02 	c2	0x1157c02
     1a8:	a0030304 	sb	v1,772(zero)
     1ac:	4d834a7f 	0x4d834a7f
     1b0:	4d4b4b4b 	0x4d4b4b4b
     1b4:	4c4b4c4b 	0x4c4b4c4b
     1b8:	4c4b4c4b 	0x4c4b4c4b
     1bc:	4c4b4c4b 	0x4c4b4c4b
     1c0:	4f4b4c4b 	c3	0x14b4c4b
     1c4:	044b4c4d 	tltiu	v0,19533
     1c8:	f23a0301 	0xf23a0301
     1cc:	0304044b 	0x304044b
     1d0:	4b4a7f9b 	c2	0x14a7f9b
     1d4:	4b4b4b4b 	c2	0x14b4b4b
     1d8:	4b4b4b4e 	c2	0x14b4b4e
     1dc:	4b4d4b4b 	c2	0x14d4b4b
     1e0:	4c4b4b4b 	0x4c4b4b4b
     1e4:	044b4d4b 	tltiu	v0,19787
     1e8:	00d00301 	0xd00301
     1ec:	4b012802 	c2	0x1012802
     1f0:	024b4b4b 	0x24b4b4b
     1f4:	4b1801f0 	c2	0x11801f0
     1f8:	4b4b4b4b 	c2	0x14b4b4b
     1fc:	0004024b 	0x4024b
     200:	00620101 	0x620101
     204:	00020000 	sll	zero,v0,0x0
     208:	0000001d 	0x1d
     20c:	0efb0101 	jal	bec0404 <__memory_size+0xbea0c04>
     210:	0101000d 	break	0x101
     214:	00000101 	0x101
     218:	00000100 	sll	zero,zero,0x4
     21c:	616d0001 	0x616d0001
     220:	632e6e69 	0x632e6e69
     224:	00000000 	nop
     228:	02050000 	0x2050000
     22c:	80000644 	lb	zero,1604(zero)
     230:	f3010d03 	0xf3010d03
     234:	040200bb 	bltzl	zero,524 <ABIFlags_flags2+0x510>
     238:	02008601 	0x2008601
     23c:	00bb0104 	0xbb0104
     240:	f3010402 	0xf3010402
     244:	01040200 	0x1040200
     248:	04020083 	bltzl	zero,458 <ABIFlags_flags2+0x444>
     24c:	02008301 	0x2008301
     250:	86830104 	lh	v1,260(s4)
     254:	040200bd 	bltzl	zero,54c <ABIFlags_flags2+0x538>
     258:	00ba0603 	0xba0603
     25c:	ba010402 	swr	at,1026(s0)
     260:	02750806 	srlv	at,s5,s3
     264:	01010014 	0x1010014
     268:	000000a9 	0xa9
     26c:	00900002 	0x900002
     270:	01010000 	0x1010000
     274:	000d0efb 	0xd0efb
     278:	01010101 	0x1010101
     27c:	01000000 	0x1000000
     280:	2f010000 	sltiu	at,t8,0
     284:	72657375 	q16slr	xr13,xr12,xr5,xr9,9
     288:	70696d2f 	0x70696d2f
     28c:	74777373 	jalx	1ddcdcc <__memory_size+0x1dbd5cc>
     290:	7469672f 	jalx	1a59cbc <__memory_size+0x1a3a4bc>
     294:	77656e2f 	jalx	d95b8bc <__memory_size+0xd93c0bc>
     298:	2f62696c 	sltiu	v0,k1,26988
     29c:	6c77656e 	0x6c77656e
     2a0:	6c2f6269 	0x6c2f6269
     2a4:	2f636269 	sltiu	v1,k1,25193
     2a8:	6c647473 	0x6c647473
     2ac:	2f006269 	sltiu	zero,t8,25193
     2b0:	72657375 	q16slr	xr13,xr12,xr5,xr9,9
     2b4:	70696d2f 	0x70696d2f
     2b8:	74777373 	jalx	1ddcdcc <__memory_size+0x1dbd5cc>
     2bc:	7469672f 	jalx	1a59cbc <__memory_size+0x1a3a4bc>
     2c0:	77656e2f 	jalx	d95b8bc <__memory_size+0xd93c0bc>
     2c4:	2f62696c 	sltiu	v0,k1,26988
     2c8:	6c77656e 	0x6c77656e
     2cc:	6c2f6269 	0x6c2f6269
     2d0:	2f636269 	sltiu	v1,k1,25193
     2d4:	6c636e69 	0x6c636e69
     2d8:	00656475 	0x656475
     2dc:	65746100 	0x65746100
     2e0:	2e746978 	sltiu	s4,s3,27000
     2e4:	00010063 	0x10063
     2e8:	65746100 	0x65746100
     2ec:	2e746978 	sltiu	s4,s3,27000
     2f0:	00010068 	0x10068
     2f4:	64747300 	0x64747300
     2f8:	2e62696c 	sltiu	v0,s3,26988
     2fc:	00020068 	0x20068
     300:	05000000 	bltz	t0,304 <ABIFlags_flags2+0x2f0>
     304:	00073c02 	srl	a3,a3,0x10
     308:	013f0380 	0x13f0380
     30c:	bb4b4983 	swr	t3,18819(k0)
     310:	01000c02 	0x1000c02
     314:	00015c01 	0x15c01
     318:	3e000200 	0x3e000200
     31c:	01000001 	movf	zero,t0,$fcc0
     320:	0d0efb01 	jal	43bec04 <__memory_size+0x439f404>
     324:	01010100 	0x1010100
     328:	00000001 	movf	zero,zero,$fcc0
     32c:	01000001 	movf	zero,t0,$fcc0
     330:	6573752f 	0x6573752f
     334:	696d2f72 	0x696d2f72
     338:	77737370 	jalx	dcdcdc0 <__memory_size+0xdcbd5c0>
     33c:	69672f74 	0x69672f74
     340:	656e2f74 	0x656e2f74
     344:	62696c77 	0x62696c77
     348:	77656e2f 	jalx	d95b8bc <__memory_size+0xd93c0bc>
     34c:	2f62696c 	sltiu	v0,k1,26988
     350:	6362696c 	0x6362696c
     354:	6474732f 	0x6474732f
     358:	0062696c 	0x62696c
     35c:	6573752f 	0x6573752f
     360:	696d2f72 	0x696d2f72
     364:	77737370 	jalx	dcdcdc0 <__memory_size+0xdcbd5c0>
     368:	69672f74 	0x69672f74
     36c:	656e2f74 	0x656e2f74
     370:	62696c77 	0x62696c77
     374:	77656e2f 	jalx	d95b8bc <__memory_size+0xd93c0bc>
     378:	2f62696c 	sltiu	v0,k1,26988
     37c:	6362696c 	0x6362696c
     380:	636e692f 	0x636e692f
     384:	6564756c 	0x6564756c
     388:	7379732f 	0x7379732f
     38c:	73752f00 	0x73752f00
     390:	6d2f7265 	0x6d2f7265
     394:	73737069 	0x73737069
     398:	692f7477 	0x692f7477
     39c:	6174736e 	0x6174736e
     3a0:	6d2d6c6c 	0x6d2d6c6c
     3a4:	2d737069 	sltiu	s3,t3,28777
     3a8:	2d69746d 	sltiu	t1,t3,29805
     3ac:	2f666c65 	sltiu	a2,k1,27749
     3b0:	2f62696c 	sltiu	v0,k1,26988
     3b4:	2f636367 	sltiu	v1,k1,25447
     3b8:	7370696d 	s16sdi	xr5,k1,52,
     3bc:	69746d2d 	0x69746d2d
     3c0:	666c652d 	0x666c652d
     3c4:	392e342f 	xori	t6,t1,0x342f
     3c8:	692f322e 	0x692f322e
     3cc:	756c636e 	jalx	5b18db8 <__memory_size+0x5af95b8>
     3d0:	2f006564 	sltiu	zero,t8,25956
     3d4:	72657375 	q16slr	xr13,xr12,xr5,xr9,9
     3d8:	70696d2f 	0x70696d2f
     3dc:	74777373 	jalx	1ddcdcc <__memory_size+0x1dbd5cc>
     3e0:	7469672f 	jalx	1a59cbc <__memory_size+0x1a3a4bc>
     3e4:	77656e2f 	jalx	d95b8bc <__memory_size+0xd93c0bc>
     3e8:	2f62696c 	sltiu	v0,k1,26988
     3ec:	6c77656e 	0x6c77656e
     3f0:	6c2f6269 	0x6c2f6269
     3f4:	2f636269 	sltiu	v1,k1,25193
     3f8:	6c636e69 	0x6c636e69
     3fc:	00656475 	0x656475
     400:	69786500 	0x69786500
     404:	00632e74 	teq	v1,v1,0xb9
     408:	6c000001 	0x6c000001
     40c:	2e6b636f 	sltiu	t3,s3,25455
     410:	00020068 	0x20068
     414:	79745f00 	ori.b	$w28,$w11,0x74
     418:	2e736570 	sltiu	s3,s3,25968
     41c:	00020068 	0x20068
     420:	64747300 	0x64747300
     424:	2e666564 	sltiu	a2,s3,25956
     428:	00030068 	0x30068
     42c:	65657200 	0x65657200
     430:	682e746e 	0x682e746e
     434:	00000200 	sll	zero,zero,0x8
     438:	6c647473 	0x6c647473
     43c:	682e6269 	0x682e6269
     440:	00000400 	sll	zero,zero,0x10
     444:	78657461 	ld.h	$w17,202(t6)
     448:	682e7469 	0x682e7469
     44c:	00000100 	sll	zero,zero,0x4
     450:	73696e75 	q16slr	xr9,xr11,xr5,xr10,13
     454:	682e6474 	0x682e6474
     458:	00000200 	sll	zero,zero,0x8
     45c:	02050000 	0x2050000
     460:	80000764 	lb	zero,1892(zero)
     464:	50013b03 	beql	zero,at,f074 <ABIFlags_flags2+0xf060>
     468:	884a7a03 	lwl	t2,31235(v0)
     46c:	833d0884 	lb	sp,2180(t9)
     470:	01000802 	0x1000802
     474:	0000f401 	0xf401
     478:	ee000200 	swc3	$0,512(s0)
     47c:	01000000 	0x1000000
     480:	0d0efb01 	jal	43bec04 <__memory_size+0x439f404>
     484:	01010100 	0x1010100
     488:	00000001 	movf	zero,zero,$fcc0
     48c:	01000001 	movf	zero,t0,$fcc0
     490:	6573752f 	0x6573752f
     494:	696d2f72 	0x696d2f72
     498:	77737370 	jalx	dcdcdc0 <__memory_size+0xdcbd5c0>
     49c:	69672f74 	0x69672f74
     4a0:	656e2f74 	0x656e2f74
     4a4:	62696c77 	0x62696c77
     4a8:	77656e2f 	jalx	d95b8bc <__memory_size+0xd93c0bc>
     4ac:	2f62696c 	sltiu	v0,k1,26988
     4b0:	6362696c 	0x6362696c
     4b4:	636e692f 	0x636e692f
     4b8:	6564756c 	0x6564756c
     4bc:	7379732f 	0x7379732f
     4c0:	73752f00 	0x73752f00
     4c4:	6d2f7265 	0x6d2f7265
     4c8:	73737069 	0x73737069
     4cc:	692f7477 	0x692f7477
     4d0:	6174736e 	0x6174736e
     4d4:	6d2d6c6c 	0x6d2d6c6c
     4d8:	2d737069 	sltiu	s3,t3,28777
     4dc:	2d69746d 	sltiu	t1,t3,29805
     4e0:	2f666c65 	sltiu	a2,k1,27749
     4e4:	2f62696c 	sltiu	v0,k1,26988
     4e8:	2f636367 	sltiu	v1,k1,25447
     4ec:	7370696d 	s16sdi	xr5,k1,52,
     4f0:	69746d2d 	0x69746d2d
     4f4:	666c652d 	0x666c652d
     4f8:	392e342f 	xori	t6,t1,0x342f
     4fc:	692f322e 	0x692f322e
     500:	756c636e 	jalx	5b18db8 <__memory_size+0x5af95b8>
     504:	2f006564 	sltiu	zero,t8,25956
     508:	72657375 	q16slr	xr13,xr12,xr5,xr9,9
     50c:	70696d2f 	0x70696d2f
     510:	74777373 	jalx	1ddcdcc <__memory_size+0x1dbd5cc>
     514:	7469672f 	jalx	1a59cbc <__memory_size+0x1a3a4bc>
     518:	77656e2f 	jalx	d95b8bc <__memory_size+0xd93c0bc>
     51c:	2f62696c 	sltiu	v0,k1,26988
     520:	6c77656e 	0x6c77656e
     524:	6c2f6269 	0x6c2f6269
     528:	2f636269 	sltiu	v1,k1,25193
     52c:	6e656572 	0x6e656572
     530:	6c000074 	0x6c000074
     534:	2e6b636f 	sltiu	t3,s3,25455
     538:	00010068 	0x10068
     53c:	79745f00 	ori.b	$w28,$w11,0x74
     540:	2e736570 	sltiu	s3,s3,25968
     544:	00010068 	0x10068
     548:	64747300 	0x64747300
     54c:	2e666564 	sltiu	a2,s3,25956
     550:	00020068 	0x20068
     554:	65657200 	0x65657200
     558:	682e746e 	0x682e746e
     55c:	00000100 	sll	zero,zero,0x4
     560:	75706d69 	jalx	5c1b5a4 <__memory_size+0x5bfbda4>
     564:	632e6572 	0x632e6572
     568:	00000300 	sll	zero,zero,0xc
     56c:	00016f00 	sll	t5,at,0x1c
     570:	36000200 	ori	zero,s0,0x200
     574:	01000001 	movf	zero,t0,$fcc0
     578:	0d0efb01 	jal	43bec04 <__memory_size+0x439f404>
     57c:	01010100 	0x1010100
     580:	00000001 	movf	zero,zero,$fcc0
     584:	01000001 	movf	zero,t0,$fcc0
     588:	6573752f 	0x6573752f
     58c:	696d2f72 	0x696d2f72
     590:	77737370 	jalx	dcdcdc0 <__memory_size+0xdcbd5c0>
     594:	69672f74 	0x69672f74
     598:	656e2f74 	0x656e2f74
     59c:	62696c77 	0x62696c77
     5a0:	77656e2f 	jalx	d95b8bc <__memory_size+0xd93c0bc>
     5a4:	2f62696c 	sltiu	v0,k1,26988
     5a8:	6362696c 	0x6362696c
     5ac:	6474732f 	0x6474732f
     5b0:	0062696c 	0x62696c
     5b4:	6573752f 	0x6573752f
     5b8:	696d2f72 	0x696d2f72
     5bc:	77737370 	jalx	dcdcdc0 <__memory_size+0xdcbd5c0>
     5c0:	6e692f74 	0x6e692f74
     5c4:	6c617473 	0x6c617473
     5c8:	696d2d6c 	0x696d2d6c
     5cc:	6d2d7370 	0x6d2d7370
     5d0:	652d6974 	0x652d6974
     5d4:	6c2f666c 	0x6c2f666c
     5d8:	672f6269 	0x672f6269
     5dc:	6d2f6363 	0x6d2f6363
     5e0:	2d737069 	sltiu	s3,t3,28777
     5e4:	2d69746d 	sltiu	t1,t3,29805
     5e8:	2f666c65 	sltiu	a2,k1,27749
     5ec:	2e392e34 	sltiu	t9,s1,11828
     5f0:	6e692f32 	0x6e692f32
     5f4:	64756c63 	0x64756c63
     5f8:	752f0065 	jalx	4bc0194 <__memory_size+0x4ba0994>
     5fc:	2f726573 	sltiu	s2,k1,25971
     600:	7370696d 	s16sdi	xr5,k1,52,
     604:	2f747773 	sltiu	s4,k1,30579
     608:	2f746967 	sltiu	s4,k1,26983
     60c:	6c77656e 	0x6c77656e
     610:	6e2f6269 	0x6e2f6269
     614:	696c7765 	0x696c7765
     618:	696c2f62 	0x696c2f62
     61c:	692f6362 	0x692f6362
     620:	756c636e 	jalx	5b18db8 <__memory_size+0x5af95b8>
     624:	732f6564 	s8ldi	xr5,t9,-39,ptn3
     628:	2f007379 	sltiu	zero,t8,29561
     62c:	72657375 	q16slr	xr13,xr12,xr5,xr9,9
     630:	70696d2f 	0x70696d2f
     634:	74777373 	jalx	1ddcdcc <__memory_size+0x1dbd5cc>
     638:	7469672f 	jalx	1a59cbc <__memory_size+0x1a3a4bc>
     63c:	77656e2f 	jalx	d95b8bc <__memory_size+0xd93c0bc>
     640:	2f62696c 	sltiu	v0,k1,26988
     644:	6c77656e 	0x6c77656e
     648:	6c2f6269 	0x6c2f6269
     64c:	2f636269 	sltiu	v1,k1,25193
     650:	6c636e69 	0x6c636e69
     654:	00656475 	0x656475
     658:	615f5f00 	0x615f5f00
     65c:	69786574 	0x69786574
     660:	00632e74 	teq	v1,v1,0xb9
     664:	73000001 	maddu	t8,zero
     668:	65646474 	0x65646474
     66c:	00682e66 	0x682e66
     670:	6c000002 	0x6c000002
     674:	2e6b636f 	sltiu	t3,s3,25455
     678:	00030068 	0x30068
     67c:	79745f00 	ori.b	$w28,$w11,0x74
     680:	2e736570 	sltiu	s3,s3,25968
     684:	00030068 	0x30068
     688:	65657200 	0x65657200
     68c:	682e746e 	0x682e746e
     690:	00000300 	sll	zero,zero,0xc
     694:	78657461 	ld.h	$w17,202(t6)
     698:	682e7469 	0x682e7469
     69c:	00000100 	sll	zero,zero,0x4
     6a0:	6c647473 	0x6c647473
     6a4:	682e6269 	0x682e6269
     6a8:	00000400 	sll	zero,zero,0x10
     6ac:	02050000 	0x2050000
     6b0:	800007a0 	lb	zero,1952(zero)
     6b4:	0100c703 	0x100c703
     6b8:	4a78031a 	c2	0x78031a
     6bc:	4a78038a 	c2	0x78038a
     6c0:	834bec08 	lb	t3,-5112(k0)
     6c4:	83f5f983 	lb	s5,-1661(ra)
     6c8:	4b4b498a 	c2	0x14b498a
     6cc:	03514b4c 	syscall	0xd452d
     6d0:	4db9ba18 	0x4db9ba18
     6d4:	bc83bc48 	cache	0x3,-17336(a0)
     6d8:	024b7808 	0x24b7808
     6dc:	01010020 	add	zero,t0,at
     6e0:	000001aa 	0x1aa
     6e4:	012f0002 	0x12f0002
     6e8:	01010000 	0x1010000
     6ec:	000d0efb 	0xd0efb
     6f0:	01010101 	0x1010101
     6f4:	01000000 	0x1000000
     6f8:	2f010000 	sltiu	at,t8,0
     6fc:	72657375 	q16slr	xr13,xr12,xr5,xr9,9
     700:	70696d2f 	0x70696d2f
     704:	74777373 	jalx	1ddcdcc <__memory_size+0x1dbd5cc>
     708:	7469672f 	jalx	1a59cbc <__memory_size+0x1a3a4bc>
     70c:	77656e2f 	jalx	d95b8bc <__memory_size+0xd93c0bc>
     710:	2f62696c 	sltiu	v0,k1,26988
     714:	6c77656e 	0x6c77656e
     718:	6c2f6269 	0x6c2f6269
     71c:	2f636269 	sltiu	v1,k1,25193
     720:	6c647473 	0x6c647473
     724:	2f006269 	sltiu	zero,t8,25193
     728:	72657375 	q16slr	xr13,xr12,xr5,xr9,9
     72c:	70696d2f 	0x70696d2f
     730:	74777373 	jalx	1ddcdcc <__memory_size+0x1dbd5cc>
     734:	7469672f 	jalx	1a59cbc <__memory_size+0x1a3a4bc>
     738:	77656e2f 	jalx	d95b8bc <__memory_size+0xd93c0bc>
     73c:	2f62696c 	sltiu	v0,k1,26988
     740:	6c77656e 	0x6c77656e
     744:	6c2f6269 	0x6c2f6269
     748:	2f636269 	sltiu	v1,k1,25193
     74c:	6c636e69 	0x6c636e69
     750:	2f656475 	sltiu	a1,k1,25717
     754:	00737973 	tltu	v1,s3,0x1e5
     758:	6573752f 	0x6573752f
     75c:	696d2f72 	0x696d2f72
     760:	77737370 	jalx	dcdcdc0 <__memory_size+0xdcbd5c0>
     764:	6e692f74 	0x6e692f74
     768:	6c617473 	0x6c617473
     76c:	696d2d6c 	0x696d2d6c
     770:	6d2d7370 	0x6d2d7370
     774:	652d6974 	0x652d6974
     778:	6c2f666c 	0x6c2f666c
     77c:	672f6269 	0x672f6269
     780:	6d2f6363 	0x6d2f6363
     784:	2d737069 	sltiu	s3,t3,28777
     788:	2d69746d 	sltiu	t1,t3,29805
     78c:	2f666c65 	sltiu	a2,k1,27749
     790:	2e392e34 	sltiu	t9,s1,11828
     794:	6e692f32 	0x6e692f32
     798:	64756c63 	0x64756c63
     79c:	752f0065 	jalx	4bc0194 <__memory_size+0x4ba0994>
     7a0:	2f726573 	sltiu	s2,k1,25971
     7a4:	7370696d 	s16sdi	xr5,k1,52,
     7a8:	2f747773 	sltiu	s4,k1,30579
     7ac:	2f746967 	sltiu	s4,k1,26983
     7b0:	6c77656e 	0x6c77656e
     7b4:	6e2f6269 	0x6e2f6269
     7b8:	696c7765 	0x696c7765
     7bc:	696c2f62 	0x696c2f62
     7c0:	692f6362 	0x692f6362
     7c4:	756c636e 	jalx	5b18db8 <__memory_size+0x5af95b8>
     7c8:	00006564 	0x6564
     7cc:	61635f5f 	0x61635f5f
     7d0:	615f6c6c 	0x615f6c6c
     7d4:	69786574 	0x69786574
     7d8:	00632e74 	teq	v1,v1,0xb9
     7dc:	6c000001 	0x6c000001
     7e0:	2e6b636f 	sltiu	t3,s3,25455
     7e4:	00020068 	0x20068
     7e8:	79745f00 	ori.b	$w28,$w11,0x74
     7ec:	2e736570 	sltiu	s3,s3,25968
     7f0:	00020068 	0x20068
     7f4:	64747300 	0x64747300
     7f8:	2e666564 	sltiu	a2,s3,25956
     7fc:	00030068 	0x30068
     800:	65657200 	0x65657200
     804:	682e746e 	0x682e746e
     808:	00000200 	sll	zero,zero,0x8
     80c:	6c647473 	0x6c647473
     810:	682e6269 	0x682e6269
     814:	00000400 	sll	zero,zero,0x10
     818:	02050000 	0x2050000
     81c:	800008a8 	lb	zero,2216(zero)
     820:	0100c303 	0x100c303
     824:	03010f03 	0x3010f03
     828:	0f034a71 	jal	c0d29c4 <__memory_size+0xc0b31c4>
     82c:	4a71034a 	c2	0x71034a
     830:	4a00c403 	c2	0xc403
     834:	4a7fbc03 	c2	0x7fbc03
     838:	034a1c03 	0x34a1c03
     83c:	bc034a28 	cache	0x3,18984(zero)
     840:	0f034a7f 	jal	c0d29fc <__memory_size+0xc0b31fc>
     844:	83012802 	lb	at,10242(t8)
     848:	00894c49 	0x894c49
     84c:	06010402 	bgez	s0,1858 <ABIFlags_flags2+0x1844>
     850:	008906f2 	tlt	a0,t1,0x1b
     854:	06020402 	bltzl	s0,1860 <ABIFlags_flags2+0x184c>
     858:	08c00682 	j	3001a08 <__memory_size+0x2fe2208>
     85c:	f3884d77 	0xf3884d77
     860:	00820903 	0x820903
     864:	06010402 	bgez	s0,1870 <ABIFlags_flags2+0x185c>
     868:	040200ba 	bltzl	zero,b54 <ABIFlags_flags2+0xb40>
     86c:	5d030602 	0x5d030602
     870:	ba2c03ba 	swr	t4,954(s1)
     874:	04020087 	bltzl	zero,a94 <ABIFlags_flags2+0xa80>
     878:	06ba0601 	0x6ba0601
     87c:	4b86838a 	c2	0x186838a
     880:	f3825c03 	0xf3825c03
     884:	240387f4 	li	v1,-30732
     888:	002c0282 	ror	zero,t4,0xa
     88c:	00fa0101 	0xfa0101
     890:	00020000 	sll	zero,v0,0x0
     894:	000000ca 	0xca
     898:	0efb0101 	jal	bec0404 <__memory_size+0xbea0c04>
     89c:	0101000d 	break	0x101
     8a0:	00000101 	0x101
     8a4:	00000100 	sll	zero,zero,0x4
     8a8:	73752f01 	0x73752f01
     8ac:	6d2f7265 	0x6d2f7265
     8b0:	73737069 	0x73737069
     8b4:	672f7477 	0x672f7477
     8b8:	6e2f7469 	0x6e2f7469
     8bc:	696c7765 	0x696c7765
     8c0:	696c2f62 	0x696c2f62
     8c4:	6f6c6762 	0x6f6c6762
     8c8:	6d2f7373 	0x6d2f7373
     8cc:	00737069 	0x737069
     8d0:	6573752f 	0x6573752f
     8d4:	696d2f72 	0x696d2f72
     8d8:	77737370 	jalx	dcdcdc0 <__memory_size+0xdcbd5c0>
     8dc:	69672f74 	0x69672f74
     8e0:	656e2f74 	0x656e2f74
     8e4:	62696c77 	0x62696c77
     8e8:	77656e2f 	jalx	d95b8bc <__memory_size+0xd93c0bc>
     8ec:	2f62696c 	sltiu	v0,k1,26988
     8f0:	6362696c 	0x6362696c
     8f4:	636e692f 	0x636e692f
     8f8:	6564756c 	0x6564756c
     8fc:	63616d2f 	0x63616d2f
     900:	656e6968 	0x656e6968
     904:	73752f00 	0x73752f00
     908:	6d2f7265 	0x6d2f7265
     90c:	73737069 	0x73737069
     910:	672f7477 	0x672f7477
     914:	6e2f7469 	0x6e2f7469
     918:	696c7765 	0x696c7765
     91c:	656e2f62 	0x656e2f62
     920:	62696c77 	0x62696c77
     924:	62696c2f 	0x62696c2f
     928:	6e692f63 	0x6e692f63
     92c:	64756c63 	0x64756c63
     930:	75000065 	jalx	4000194 <__memory_size+0x3fe0994>
     934:	655f6968 	0x655f6968
     938:	2e746978 	sltiu	s4,s3,27000
     93c:	00010063 	0x10063
     940:	65645f00 	0x65645f00
     944:	6c756166 	0x6c756166
     948:	79745f74 	0x79745f74
     94c:	2e736570 	sltiu	s3,s3,25968
     950:	00020068 	0x20068
     954:	64747300 	0x64747300
     958:	2e746e69 	sltiu	s4,s3,28265
     95c:	00030068 	0x30068
     960:	05000000 	bltz	t0,964 <ABIFlags_flags2+0x950>
     964:	000a2802 	srl	a1,t2,0x0
     968:	013d0380 	0x13d0380
     96c:	03821203 	0x3821203
     970:	12034a6e 	beq	s0,v1,1332c <ABIFlags_flags2+0x13318>
     974:	826e034a 	lb	t6,842(s3)
     978:	4b4b4b82 	c2	0x14b4b82
     97c:	4a0d034c 	c2	0xd034c
     980:	04020084 	bltzl	zero,b94 <ABIFlags_flags2+0xb80>
     984:	02838001 	0x2838001
     988:	01010018 	mult	t0,at
     98c:	00000066 	0x66
     990:	00500002 	0x500002
     994:	01010000 	0x1010000
     998:	000d0efb 	0xd0efb
     99c:	01010101 	0x1010101
     9a0:	01000000 	0x1000000
     9a4:	2f010000 	sltiu	at,t8,0
     9a8:	72657375 	q16slr	xr13,xr12,xr5,xr9,9
     9ac:	70696d2f 	0x70696d2f
     9b0:	74777373 	jalx	1ddcdcc <__memory_size+0x1dbd5cc>
     9b4:	7469672f 	jalx	1a59cbc <__memory_size+0x1a3a4bc>
     9b8:	77656e2f 	jalx	d95b8bc <__memory_size+0xd93c0bc>
     9bc:	2f62696c 	sltiu	v0,k1,26988
     9c0:	6762696c 	0x6762696c
     9c4:	73736f6c 	s16ldi	xr13,k1,438,ptn2
     9c8:	70696d2f 	0x70696d2f
     9cc:	75000073 	jalx	40001cc <__memory_size+0x3fe09cc>
     9d0:	675f6968 	0x675f6968
     9d4:	6d5f7465 	0x6d5f7465
     9d8:	695f6d65 	0x695f6d65
     9dc:	2e6f666e 	sltiu	t7,s3,26222
     9e0:	00010063 	0x10063
     9e4:	05000000 	bltz	t0,9e8 <ABIFlags_flags2+0x9d4>
     9e8:	000a8c02 	srl	s1,t2,0x10
     9ec:	01380380 	0x1380380
     9f0:	00100213 	0x100213
     9f4:	00870101 	0x870101
     9f8:	00020000 	sll	zero,v0,0x0
     9fc:	0000004b 	0x4b
     a00:	0efb0101 	jal	bec0404 <__memory_size+0xbea0c04>
     a04:	0101000d 	break	0x101
     a08:	00000101 	0x101
     a0c:	00000100 	sll	zero,zero,0x4
     a10:	73752f01 	0x73752f01
     a14:	6d2f7265 	0x6d2f7265
     a18:	73737069 	0x73737069
     a1c:	672f7477 	0x672f7477
     a20:	6e2f7469 	0x6e2f7469
     a24:	696c7765 	0x696c7765
     a28:	696c2f62 	0x696c2f62
     a2c:	6f6c6762 	0x6f6c6762
     a30:	6d2f7373 	0x6d2f7373
     a34:	00737069 	0x737069
     a38:	69687500 	0x69687500
     a3c:	7465675f 	jalx	1959d7c <__memory_size+0x193a57c>
     a40:	73677261 	0x73677261
     a44:	0100532e 	0x100532e
     a48:	00000000 	nop
     a4c:	0a9c0205 	j	a700814 <__memory_size+0xa6e1014>
     a50:	2e038000 	sltiu	v1,s0,-32768
     a54:	4b4c4b01 	c2	0x14c4b01
     a58:	4b844d4c 	c2	0x1844d4c
     a5c:	4b834b4b 	c2	0x1834b4b
     a60:	4b4b4e4b 	c2	0x14b4e4b
     a64:	4b844c4c 	c2	0x1844c4c
     a68:	4b4b834b 	c2	0x14b834b
     a6c:	4b4b4c4b 	c2	0x14b4c4b
     a70:	844c4c4b 	lh	t4,19531(v0)
     a74:	4b854b4b 	c2	0x1854b4b
     a78:	144b4b4e 	bne	v0,t3,137b4 <ABIFlags_flags2+0x137a0>
     a7c:	01000802 	0x1000802
     a80:	00010601 	0x10601
     a84:	50000200 	beqzl	zero,1288 <ABIFlags_flags2+0x1274>
     a88:	01000000 	0x1000000
     a8c:	0d0efb01 	jal	43bec04 <__memory_size+0x439f404>
     a90:	01010100 	0x1010100
     a94:	00000001 	movf	zero,zero,$fcc0
     a98:	01000001 	movf	zero,t0,$fcc0
     a9c:	6573752f 	0x6573752f
     aa0:	696d2f72 	0x696d2f72
     aa4:	77737370 	jalx	dcdcdc0 <__memory_size+0xdcbd5c0>
     aa8:	69672f74 	0x69672f74
     aac:	656e2f74 	0x656e2f74
     ab0:	62696c77 	0x62696c77
     ab4:	62696c2f 	0x62696c2f
     ab8:	736f6c67 	0x736f6c67
     abc:	696d2f73 	0x696d2f73
     ac0:	00007370 	tge	zero,zero,0x1cd
     ac4:	7370696d 	s16sdi	xr5,k1,52,
     ac8:	6378655f 	0x6378655f
     acc:	655f7470 	0x655f7470
     ad0:	7972746e 	0x7972746e
     ad4:	0100532e 	0x100532e
     ad8:	00000000 	nop
     adc:	00000205 	0x205
     ae0:	c0038000 	ll	v1,-32768(zero)
     ae4:	4b830100 	c2	0x1830100
     ae8:	4c4b4d4b 	0x4c4b4d4b
     aec:	4b4b4b83 	c2	0x14b4b83
     af0:	83185002 	lb	t8,20482(t8)
     af4:	024b4b4b 	0x24b4b4b
     af8:	4b83176c 	c2	0x183176c
     afc:	6c024b4b 	0x6c024b4b
     b00:	4b834d16 	c2	0x1834d16
     b04:	83177002 	lb	s7,28674(t8)
     b08:	024b4b4b 	0x24b4b4b
     b0c:	01010004 	sllv	zero,at,t0
     b10:	b8020500 	swr	v0,1280(zero)
     b14:	03800014 	0x3800014
     b18:	4c010184 	0x4c010184
     b1c:	4b4b4b4d 	c2	0x14b4b4d
     b20:	4b4b4b4b 	c2	0x14b4b4b
     b24:	4b4b4b4b 	c2	0x14b4b4b
     b28:	4b4b4b4b 	c2	0x14b4b4b
     b2c:	4b4b4b4b 	c2	0x14b4b4b
     b30:	4b4b4b4b 	c2	0x14b4b4b
     b34:	4b4b4b4b 	c2	0x14b4b4b
     b38:	4d4b4b4b 	0x4d4b4b4b
     b3c:	4f4b4b4b 	c3	0x14b4b4b
     b40:	4b4d4b4b 	c2	0x14d4b4b
     b44:	4b4b4c4b 	c2	0x14b4c4b
     b48:	4c4b4b4b 	0x4c4b4b4b
     b4c:	4b4c4b4b 	c2	0x14c4b4b
     b50:	4b4b4d4d 	c2	0x14b4d4d
     b54:	4d4b4b4b 	0x4d4b4b4b
     b58:	4e4d4d84 	c3	0x4d4d84
     b5c:	4b504b83 	c2	0x1504b83
     b60:	4b4d4b4b 	c2	0x14d4b4b
     b64:	4b4b4b4b 	c2	0x14b4b4b
     b68:	4b4b4b4b 	c2	0x14b4b4b
     b6c:	4b4b4b4b 	c2	0x14b4b4b
     b70:	4b4b4b4b 	c2	0x14b4b4b
     b74:	4b4b4b4b 	c2	0x14b4b4b
     b78:	4b4b4b4b 	c2	0x14b4b4b
     b7c:	4b4b4b4b 	c2	0x14b4b4b
     b80:	4b4b4b4b 	c2	0x14b4b4b
     b84:	04024c4b 	bltzl	zero,13cb4 <ABIFlags_flags2+0x13ca0>
     b88:	4e010100 	lwxc1	$f4,at(s0)
     b8c:	02000002 	0x2000002
     b90:	00017a00 	sll	t7,at,0x8
     b94:	fb010100 	sdc2	$1,256(t8)
     b98:	01000d0e 	0x1000d0e
     b9c:	00010101 	0x10101
     ba0:	00010000 	sll	zero,at,0x0
     ba4:	752f0100 	jalx	4bc0400 <__memory_size+0x4ba0c00>
     ba8:	2f726573 	sltiu	s2,k1,25971
     bac:	7370696d 	s16sdi	xr5,k1,52,
     bb0:	2f747773 	sltiu	s4,k1,30579
     bb4:	2f746967 	sltiu	s4,k1,26983
     bb8:	6c77656e 	0x6c77656e
     bbc:	6c2f6269 	0x6c2f6269
     bc0:	6c676269 	0x6c676269
     bc4:	2f73736f 	sltiu	s3,k1,29551
     bc8:	7370696d 	s16sdi	xr5,k1,52,
     bcc:	73752f00 	0x73752f00
     bd0:	6d2f7265 	0x6d2f7265
     bd4:	73737069 	0x73737069
     bd8:	692f7477 	0x692f7477
     bdc:	6174736e 	0x6174736e
     be0:	6d2d6c6c 	0x6d2d6c6c
     be4:	2d737069 	sltiu	s3,t3,28777
     be8:	2d69746d 	sltiu	t1,t3,29805
     bec:	2f666c65 	sltiu	a2,k1,27749
     bf0:	2f62696c 	sltiu	v0,k1,26988
     bf4:	2f636367 	sltiu	v1,k1,25447
     bf8:	7370696d 	s16sdi	xr5,k1,52,
     bfc:	69746d2d 	0x69746d2d
     c00:	666c652d 	0x666c652d
     c04:	392e342f 	xori	t6,t1,0x342f
     c08:	692f322e 	0x692f322e
     c0c:	756c636e 	jalx	5b18db8 <__memory_size+0x5af95b8>
     c10:	2f006564 	sltiu	zero,t8,25956
     c14:	72657375 	q16slr	xr13,xr12,xr5,xr9,9
     c18:	70696d2f 	0x70696d2f
     c1c:	74777373 	jalx	1ddcdcc <__memory_size+0x1dbd5cc>
     c20:	7469672f 	jalx	1a59cbc <__memory_size+0x1a3a4bc>
     c24:	77656e2f 	jalx	d95b8bc <__memory_size+0xd93c0bc>
     c28:	2f62696c 	sltiu	v0,k1,26988
     c2c:	6c77656e 	0x6c77656e
     c30:	6c2f6269 	0x6c2f6269
     c34:	2f636269 	sltiu	v1,k1,25193
     c38:	6c636e69 	0x6c636e69
     c3c:	2f656475 	sltiu	a1,k1,25717
     c40:	6863616d 	0x6863616d
     c44:	00656e69 	0x656e69
     c48:	6573752f 	0x6573752f
     c4c:	696d2f72 	0x696d2f72
     c50:	77737370 	jalx	dcdcdc0 <__memory_size+0xdcbd5c0>
     c54:	69672f74 	0x69672f74
     c58:	656e2f74 	0x656e2f74
     c5c:	62696c77 	0x62696c77
     c60:	77656e2f 	jalx	d95b8bc <__memory_size+0xd93c0bc>
     c64:	2f62696c 	sltiu	v0,k1,26988
     c68:	6362696c 	0x6362696c
     c6c:	636e692f 	0x636e692f
     c70:	6564756c 	0x6564756c
     c74:	73752f00 	0x73752f00
     c78:	6d2f7265 	0x6d2f7265
     c7c:	73737069 	0x73737069
     c80:	672f7477 	0x672f7477
     c84:	6e2f7469 	0x6e2f7469
     c88:	696c7765 	0x696c7765
     c8c:	656e2f62 	0x656e2f62
     c90:	62696c77 	0x62696c77
     c94:	62696c2f 	0x62696c2f
     c98:	6e692f63 	0x6e692f63
     c9c:	64756c63 	0x64756c63
     ca0:	79732f65 	st.h	$w29,742(a1)
     ca4:	6d000073 	0x6d000073
     ca8:	5f737069 	0x5f737069
     cac:	70637865 	s8sdi	xr1,v1,-34,ptn0
     cb0:	61685f74 	0x61685f74
     cb4:	656c646e 	0x656c646e
     cb8:	00632e72 	tlt	v1,v1,0xb9
     cbc:	73000001 	maddu	t8,zero
     cc0:	65646474 	0x65646474
     cc4:	00682e66 	0x682e66
     cc8:	5f000002 	bgtzl	t8,cd4 <ABIFlags_flags2+0xcc0>
     ccc:	61666564 	0x61666564
     cd0:	5f746c75 	0x5f746c75
     cd4:	65707974 	0x65707974
     cd8:	00682e73 	tltu	v1,t0,0xb9
     cdc:	73000003 	0x73000003
     ce0:	6e696474 	0x6e696474
     ce4:	00682e74 	teq	v1,t0,0xb9
     ce8:	65000004 	0x65000004
     cec:	74706378 	jalx	1c18de0 <__memory_size+0x1bf95e0>
     cf0:	0100682e 	0x100682e
     cf4:	74730000 	jalx	1cc0000 <__memory_size+0x1ca0800>
     cf8:	676e6972 	0x676e6972
     cfc:	0400682e 	bltz	zero,1adb8 <ABIFlags_flags2+0x1ada4>
     d00:	6e750000 	0x6e750000
     d04:	64747369 	0x64747369
     d08:	0500682e 	bltz	t0,1adc4 <ABIFlags_flags2+0x1adb0>
     d0c:	00000000 	nop
     d10:	0b540205 	j	d500814 <__memory_size+0xd4e1014>
     d14:	cd038000 	pref	0x3,-32768(t0)
     d18:	b2080100 	0xb2080100
     d1c:	03770883 	0x3770883
     d20:	0a034a76 	j	80d29d8 <__memory_size+0x80b31d8>
     d24:	08f3494a 	j	3cd2528 <__memory_size+0x3cb2d28>
     d28:	83bc84ab 	lb	gp,-31573(sp)
     d2c:	78087508 	0x78087508
     d30:	49138813 	bc2tl	$cc4,fffe2d80 <__flash_start+0x403e2d80>
     d34:	02f3494b 	0x2f3494b
     d38:	bef51524 	cache	0x15,5412(s7)
     d3c:	bd3d08be 	cache	0x1d,2238(t1)
     d40:	847508be 	lh	s5,2238(v1)
     d44:	3c080a03 	lui	t0,0xa03
     d48:	02003f08 	0x2003f08
     d4c:	83ef0104 	lb	t7,260(ra)
     d50:	f27fa403 	0xf27fa403
     d54:	4b4b464f 	c2	0x14b464f
     d58:	4f4f4e4b 	c3	0x14f4e4b
     d5c:	484d4b46 	0x484d4b46
     d60:	00d1034c 	syscall	0x3440d
     d64:	bdbdbd82 	cache	0x1d,-17022(t5)
     d68:	3f083f08 	0x3f083f08
     d6c:	3f083f08 	0x3f083f08
     d70:	083f08f5 	j	fc23d4 <__memory_size+0xfa2bd4>
     d74:	083f083f 	j	fc20fc <__memory_size+0xfa28fc>
     d78:	f5bdbd3f 	sdc1	$f29,-17089(t5)
     d7c:	3f083f08 	0x3f083f08
     d80:	3f083f08 	0x3f083f08
     d84:	ad084008 	sw	t0,16392(t0)
     d88:	3d083d08 	0x3d083d08
     d8c:	3d083e08 	0x3d083e08
     d90:	3d083d08 	0x3d083d08
     d94:	3d083e08 	0x3d083e08
     d98:	3d083d08 	0x3d083d08
     d9c:	3d083e08 	0x3d083e08
     da0:	3d083d08 	0x3d083d08
     da4:	3d083e08 	0x3d083e08
     da8:	3d083d08 	0x3d083d08
     dac:	3d083e08 	0x3d083e08
     db0:	3d083d08 	0x3d083d08
     db4:	3d083e08 	0x3d083e08
     db8:	3d083d08 	0x3d083d08
     dbc:	3d083e08 	0x3d083e08
     dc0:	3d083d08 	0x3d083d08
     dc4:	3d083f08 	0x3d083f08
     dc8:	3d083f08 	0x3d083f08
     dcc:	3d083e08 	0x3d083e08
     dd0:	3d083d08 	0x3d083d08
     dd4:	83863f08 	lb	a2,16136(gp)
     dd8:	01001802 	0x1001802
     ddc:	0000f301 	0xf301
     de0:	53000200 	beqzl	t8,15e4 <ABIFlags_flags2+0x15d0>
     de4:	01000000 	0x1000000
     de8:	0d0efb01 	jal	43bec04 <__memory_size+0x439f404>
     dec:	01010100 	0x1010100
     df0:	00000001 	movf	zero,zero,$fcc0
     df4:	01000001 	movf	zero,t0,$fcc0
     df8:	6573752f 	0x6573752f
     dfc:	696d2f72 	0x696d2f72
     e00:	77737370 	jalx	dcdcdc0 <__memory_size+0xdcbd5c0>
     e04:	69672f74 	0x69672f74
     e08:	656e2f74 	0x656e2f74
     e0c:	62696c77 	0x62696c77
     e10:	62696c2f 	0x62696c2f
     e14:	736f6c67 	0x736f6c67
     e18:	696d2f73 	0x696d2f73
     e1c:	00007370 	tge	zero,zero,0x1cd
     e20:	7370696d 	s16sdi	xr5,k1,52,
     e24:	6378655f 	0x6378655f
     e28:	725f7470 	d32sll	xr1,xr13,xr13,xr7,9
     e2c:	73696765 	s8sdi	xr13,k1,89,ptn2
     e30:	2e726574 	sltiu	s2,s3,25972
     e34:	00010053 	0x10053
     e38:	05000000 	bltz	t0,e3c <ABIFlags_flags2+0xe28>
     e3c:	00120c02 	srl	at,s2,0x10
     e40:	00d10380 	0xd10380
     e44:	4b4b4f01 	c2	0x14b4f01
     e48:	834d834d 	lb	t5,-31923(k0)
     e4c:	4b4b4b4c 	c2	0x14b4b4c
     e50:	4b4b4b4b 	c2	0x14b4b4b
     e54:	4b4b4b4b 	c2	0x14b4b4b
     e58:	0e034b4b 	jal	80d2d2c <__memory_size+0x80b352c>
     e5c:	4b4d4b4a 	c2	0x14d4b4a
     e60:	4b4f4b4b 	c2	0x14f4b4b
     e64:	4b864d4d 	c2	0x1864d4d
     e68:	4d4b4d4b 	0x4d4b4d4b
     e6c:	4c4d4b4b 	0x4c4d4b4b
     e70:	4a13034b 	c2	0x13034b
     e74:	4b4b4b4b 	c2	0x14b4b4b
     e78:	4b4c834d 	c2	0x14c834d
     e7c:	4d4b4b4c 	0x4d4b4b4c
     e80:	4b834d4b 	c2	0x1834d4b
     e84:	4b4b4b4b 	c2	0x14b4b4b
     e88:	4b4b4b4b 	c2	0x14b4b4b
     e8c:	4b4b4b4b 	c2	0x14b4b4b
     e90:	4d4b4d52 	0x4d4b4d52
     e94:	15034b4b 	bne	t0,v1,13bc4 <ABIFlags_flags2+0x13bb0>
     e98:	4b4b4d4a 	c2	0x14b4d4a
     e9c:	4b4b4d4b 	c2	0x14b4d4b
     ea0:	4b4d4b4b 	c2	0x14d4b4b
     ea4:	4b4b4b4b 	c2	0x14b4b4b
     ea8:	4b4b4b4b 	c2	0x14b4b4b
     eac:	4b4b4b4b 	c2	0x14b4b4b
     eb0:	4b4b4b4b 	c2	0x14b4b4b
     eb4:	4b4b4b4b 	c2	0x14b4b4b
     eb8:	4b4b4b4b 	c2	0x14b4b4b
     ebc:	834d4b4b 	lb	t5,19275(k0)
     ec0:	4a17034b 	c2	0x17034b
     ec4:	034b4d4b 	0x34b4d4b
     ec8:	4b834a13 	c2	0x1834a13
     ecc:	024b4b4b 	0x24b4b4b
     ed0:	01010004 	sllv	zero,at,t0
     ed4:	00000019 	multu	zero,zero
     ed8:	00130002 	srl	zero,s3,0x0
     edc:	01010000 	0x1010000
     ee0:	000d0efb 	0xd0efb
     ee4:	01010101 	0x1010101
     ee8:	01000000 	0x1000000
     eec:	00010000 	sll	zero,at,0x0
     ef0:	00012500 	sll	a0,at,0x14
     ef4:	07000200 	bltz	t8,16f8 <ABIFlags_flags2+0x16e4>
     ef8:	01000001 	movf	zero,t0,$fcc0
     efc:	0d0efb01 	jal	43bec04 <__memory_size+0x439f404>
     f00:	01010100 	0x1010100
     f04:	00000001 	movf	zero,zero,$fcc0
     f08:	01000001 	movf	zero,t0,$fcc0
     f0c:	6573752f 	0x6573752f
     f10:	696d2f72 	0x696d2f72
     f14:	77737370 	jalx	dcdcdc0 <__memory_size+0xdcbd5c0>
     f18:	69672f74 	0x69672f74
     f1c:	656e2f74 	0x656e2f74
     f20:	62696c77 	0x62696c77
     f24:	62696c2f 	0x62696c2f
     f28:	736f6c67 	0x736f6c67
     f2c:	696d2f73 	0x696d2f73
     f30:	2f007370 	sltiu	zero,t8,29552
     f34:	72657375 	q16slr	xr13,xr12,xr5,xr9,9
     f38:	70696d2f 	0x70696d2f
     f3c:	74777373 	jalx	1ddcdcc <__memory_size+0x1dbd5cc>
     f40:	7469672f 	jalx	1a59cbc <__memory_size+0x1a3a4bc>
     f44:	77656e2f 	jalx	d95b8bc <__memory_size+0xd93c0bc>
     f48:	2f62696c 	sltiu	v0,k1,26988
     f4c:	6c77656e 	0x6c77656e
     f50:	6c2f6269 	0x6c2f6269
     f54:	2f636269 	sltiu	v1,k1,25193
     f58:	6c636e69 	0x6c636e69
     f5c:	2f656475 	sltiu	a1,k1,25717
     f60:	6863616d 	0x6863616d
     f64:	00656e69 	0x656e69
     f68:	6573752f 	0x6573752f
     f6c:	696d2f72 	0x696d2f72
     f70:	77737370 	jalx	dcdcdc0 <__memory_size+0xdcbd5c0>
     f74:	69672f74 	0x69672f74
     f78:	656e2f74 	0x656e2f74
     f7c:	62696c77 	0x62696c77
     f80:	77656e2f 	jalx	d95b8bc <__memory_size+0xd93c0bc>
     f84:	2f62696c 	sltiu	v0,k1,26988
     f88:	6362696c 	0x6362696c
     f8c:	636e692f 	0x636e692f
     f90:	6564756c 	0x6564756c
     f94:	73752f00 	0x73752f00
     f98:	6d2f7265 	0x6d2f7265
     f9c:	73737069 	0x73737069
     fa0:	672f7477 	0x672f7477
     fa4:	6e2f7469 	0x6e2f7469
     fa8:	696c7765 	0x696c7765
     fac:	656e2f62 	0x656e2f62
     fb0:	62696c77 	0x62696c77
     fb4:	62696c2f 	0x62696c2f
     fb8:	6e692f63 	0x6e692f63
     fbc:	64756c63 	0x64756c63
     fc0:	79732f65 	st.h	$w29,742(a1)
     fc4:	75000073 	jalx	40001cc <__memory_size+0x3fe09cc>
     fc8:	775f6968 	jalx	d7da5a0 <__memory_size+0xd7bada0>
     fcc:	65746972 	0x65746972
     fd0:	0100632e 	0x100632e
     fd4:	645f0000 	0x645f0000
     fd8:	75616665 	jalx	5859994 <__memory_size+0x583a194>
     fdc:	745f746c 	jalx	17dd1b0 <__memory_size+0x17bd9b0>
     fe0:	73657079 	0x73657079
     fe4:	0200682e 	0x200682e
     fe8:	74730000 	jalx	1cc0000 <__memory_size+0x1ca0800>
     fec:	746e6964 	jalx	1b9a590 <__memory_size+0x1b7ad90>
     ff0:	0300682e 	0x300682e
     ff4:	72650000 	madd	s3,a1
     ff8:	2e6f6e72 	sltiu	t7,s3,28274
     ffc:	00040068 	0x40068
    1000:	05000000 	bltz	t0,1004 <ABIFlags_flags2+0xff0>
    1004:	00144802 	srl	t1,s4,0x0
    1008:	013e0380 	0x13e0380
    100c:	454f464e 	0x454f464e
    1010:	4bf64f52 	c2	0x1f64f52
    1014:	001402f6 	tne	zero,s4,0xb
    1018:	00f30101 	0xf30101
    101c:	00020000 	sll	zero,v0,0x0
    1020:	000000da 	0xda
    1024:	0efb0101 	jal	bec0404 <__memory_size+0xbea0c04>
    1028:	0101000d 	break	0x101
    102c:	00000101 	0x101
    1030:	00000100 	sll	zero,zero,0x4
    1034:	73752f01 	0x73752f01
    1038:	6d2f7265 	0x6d2f7265
    103c:	73737069 	0x73737069
    1040:	672f7477 	0x672f7477
    1044:	6e2f7469 	0x6e2f7469
    1048:	696c7765 	0x696c7765
    104c:	696c2f62 	0x696c2f62
    1050:	6f6c6762 	0x6f6c6762
    1054:	6d2f7373 	0x6d2f7373
    1058:	00737069 	0x737069
    105c:	6573752f 	0x6573752f
    1060:	696d2f72 	0x696d2f72
    1064:	77737370 	jalx	dcdcdc0 <__memory_size+0xdcbd5c0>
    1068:	69672f74 	0x69672f74
    106c:	656e2f74 	0x656e2f74
    1070:	62696c77 	0x62696c77
    1074:	77656e2f 	jalx	d95b8bc <__memory_size+0xd93c0bc>
    1078:	2f62696c 	sltiu	v0,k1,26988
    107c:	6362696c 	0x6362696c
    1080:	636e692f 	0x636e692f
    1084:	6564756c 	0x6564756c
    1088:	63616d2f 	0x63616d2f
    108c:	656e6968 	0x656e6968
    1090:	73752f00 	0x73752f00
    1094:	6d2f7265 	0x6d2f7265
    1098:	73737069 	0x73737069
    109c:	672f7477 	0x672f7477
    10a0:	6e2f7469 	0x6e2f7469
    10a4:	696c7765 	0x696c7765
    10a8:	656e2f62 	0x656e2f62
    10ac:	62696c77 	0x62696c77
    10b0:	62696c2f 	0x62696c2f
    10b4:	6e692f63 	0x6e692f63
    10b8:	64756c63 	0x64756c63
    10bc:	75000065 	jalx	4000194 <__memory_size+0x3fe0994>
    10c0:	655f6968 	0x655f6968
    10c4:	70656378 	0x70656378
    10c8:	6e6f6974 	0x6e6f6974
    10cc:	0100632e 	0x100632e
    10d0:	645f0000 	0x645f0000
    10d4:	75616665 	jalx	5859994 <__memory_size+0x583a194>
    10d8:	745f746c 	jalx	17dd1b0 <__memory_size+0x17bd9b0>
    10dc:	73657079 	0x73657079
    10e0:	0200682e 	0x200682e
    10e4:	74730000 	jalx	1cc0000 <__memory_size+0x1ca0800>
    10e8:	746e6964 	jalx	1b9a590 <__memory_size+0x1b7ad90>
    10ec:	0300682e 	0x300682e
    10f0:	78650000 	andi.b	$w0,$w0,0x65
    10f4:	2e747063 	sltiu	s4,s3,28771
    10f8:	00010068 	0x10068
    10fc:	05000000 	bltz	t0,1100 <ABIFlags_flags2+0x10ec>
    1100:	00149802 	srl	s3,s4,0x0
    1104:	01370380 	0x1370380
    1108:	504c4b14 	beql	v0,t4,13d5c <ABIFlags_flags2+0x13d48>
    110c:	01000802 	0x1000802
    1110:	00010e01 	0x10e01
    1114:	f8000200 	sdc2	$0,512(zero)
    1118:	01000000 	0x1000000
    111c:	0d0efb01 	jal	43bec04 <__memory_size+0x439f404>
    1120:	01010100 	0x1010100
    1124:	00000001 	movf	zero,zero,$fcc0
    1128:	01000001 	movf	zero,t0,$fcc0
    112c:	6573752f 	0x6573752f
    1130:	696d2f72 	0x696d2f72
    1134:	77737370 	jalx	dcdcdc0 <__memory_size+0xdcbd5c0>
    1138:	69672f74 	0x69672f74
    113c:	656e2f74 	0x656e2f74
    1140:	62696c77 	0x62696c77
    1144:	77656e2f 	jalx	d95b8bc <__memory_size+0xd93c0bc>
    1148:	2f62696c 	sltiu	v0,k1,26988
    114c:	6362696c 	0x6362696c
    1150:	7272652f 	0x7272652f
    1154:	2f006f6e 	sltiu	zero,t8,28526
    1158:	72657375 	q16slr	xr13,xr12,xr5,xr9,9
    115c:	70696d2f 	0x70696d2f
    1160:	74777373 	jalx	1ddcdcc <__memory_size+0x1dbd5cc>
    1164:	7469672f 	jalx	1a59cbc <__memory_size+0x1a3a4bc>
    1168:	77656e2f 	jalx	d95b8bc <__memory_size+0xd93c0bc>
    116c:	2f62696c 	sltiu	v0,k1,26988
    1170:	6c77656e 	0x6c77656e
    1174:	6c2f6269 	0x6c2f6269
    1178:	2f636269 	sltiu	v1,k1,25193
    117c:	6c636e69 	0x6c636e69
    1180:	2f656475 	sltiu	a1,k1,25717
    1184:	00737973 	tltu	v1,s3,0x1e5
    1188:	6573752f 	0x6573752f
    118c:	696d2f72 	0x696d2f72
    1190:	77737370 	jalx	dcdcdc0 <__memory_size+0xdcbd5c0>
    1194:	6e692f74 	0x6e692f74
    1198:	6c617473 	0x6c617473
    119c:	696d2d6c 	0x696d2d6c
    11a0:	6d2d7370 	0x6d2d7370
    11a4:	652d6974 	0x652d6974
    11a8:	6c2f666c 	0x6c2f666c
    11ac:	672f6269 	0x672f6269
    11b0:	6d2f6363 	0x6d2f6363
    11b4:	2d737069 	sltiu	s3,t3,28777
    11b8:	2d69746d 	sltiu	t1,t3,29805
    11bc:	2f666c65 	sltiu	a2,k1,27749
    11c0:	2e392e34 	sltiu	t9,s1,11828
    11c4:	6e692f32 	0x6e692f32
    11c8:	64756c63 	0x64756c63
    11cc:	65000065 	0x65000065
    11d0:	6f6e7272 	0x6f6e7272
    11d4:	0100632e 	0x100632e
    11d8:	6f6c0000 	0x6f6c0000
    11dc:	682e6b63 	0x682e6b63
    11e0:	00000200 	sll	zero,zero,0x8
    11e4:	7079745f 	udi15	v1,t9,t6,0x11
    11e8:	682e7365 	0x682e7365
    11ec:	00000200 	sll	zero,zero,0x8
    11f0:	64647473 	0x64647473
    11f4:	682e6665 	0x682e6665
    11f8:	00000300 	sll	zero,zero,0xc
    11fc:	6e656572 	0x6e656572
    1200:	00682e74 	teq	v1,t0,0xb9
    1204:	65000002 	0x65000002
    1208:	6f6e7272 	0x6f6e7272
    120c:	0200682e 	0x200682e
    1210:	00000000 	nop
    1214:	14ac0205 	bne	a1,t4,1a2c <ABIFlags_flags2+0x1a18>
    1218:	0b038000 	j	c0e0000 <__memory_size+0xc0c0800>
    121c:	0c021401 	jal	85004 <__memory_size+0x65804>
    1220:	Address 0x0000000000001220 is out of bounds.


Disassembly of section .debug_frame:

00000000 <.debug_frame>:
   0:	0000000c 	syscall
   4:	ffffffff 	sdc3	$31,-1(ra)
   8:	7c010001 	0x7c010001
   c:	001d0d1f 	0x1d0d1f
  10:	00000018 	mult	zero,zero
  14:	00000000 	nop
  18:	80000644 	lb	zero,1604(zero)
  1c:	00000060 	0x60
  20:	48280e44 	0x48280e44
  24:	029e019f 	0x29e019f
  28:	001e0d44 	0x1e0d44
  2c:	0000001c 	0x1c
  30:	00000000 	nop
  34:	800006a4 	lb	zero,1700(zero)
  38:	00000050 	0x50
  3c:	44100e44 	0x44100e44
  40:	0d44019e 	jal	5100678 <__memory_size+0x50e0e78>
  44:	1d0d741e 	0x1d0d741e
  48:	000ede48 	0xede48
  4c:	0000000c 	syscall
  50:	ffffffff 	sdc3	$31,-1(ra)
  54:	7c010001 	0x7c010001
  58:	001d0d1f 	0x1d0d1f
  5c:	00000018 	mult	zero,zero
  60:	0000004c 	syscall	0x1
  64:	8000073c 	lb	zero,1852(zero)
  68:	00000028 	0x28
  6c:	4c180e44 	0x4c180e44
  70:	0e58019f 	jal	960067c <__memory_size+0x95e0e7c>
  74:	0000df00 	sll	k1,zero,0x1c
  78:	0000000c 	syscall
  7c:	ffffffff 	sdc3	$31,-1(ra)
  80:	7c010001 	0x7c010001
  84:	001d0d1f 	0x1d0d1f
  88:	00000014 	0x14
  8c:	00000078 	0x78
  90:	80000764 	lb	zero,1892(zero)
  94:	0000003c 	0x3c
  98:	4c180e44 	0x4c180e44
  9c:	019f0290 	0x19f0290
  a0:	0000000c 	syscall
  a4:	ffffffff 	sdc3	$31,-1(ra)
  a8:	7c010001 	0x7c010001
  ac:	001d0d1f 	0x1d0d1f
  b0:	0000002c 	0x2c
  b4:	000000a0 	0xa0
  b8:	800007a0 	lb	zero,1952(zero)
  bc:	00000108 	0x108
  c0:	44280e48 	0x44280e48
  c4:	94480690 	lhu	t0,1680(v0)
  c8:	03934802 	0x3934802
  cc:	4c049248 	0x4c049248
  d0:	019f0591 	0x19f0591
  d4:	000ed802 	srl	k1,t6,0x0
  d8:	d3d2d1d0 	0xd3d2d1d0
  dc:	0000dfd4 	0xdfd4
  e0:	0000000c 	syscall
  e4:	ffffffff 	sdc3	$31,-1(ra)
  e8:	7c010001 	0x7c010001
  ec:	001d0d1f 	0x1d0d1f
  f0:	00000038 	0x38
  f4:	000000e0 	0xe0
  f8:	800008a8 	lb	zero,2216(zero)
  fc:	00000180 	sll	zero,zero,0x6
 100:	48400e48 	0x48400e48
 104:	97480793 	lhu	t0,1939(k0)
 108:	04965003 	0x4965003
 10c:	9f600694 	0x9f600694
 110:	95029e01 	lhu	v0,-25087(t0)
 114:	91089205 	lbu	t0,-28155(t0)
 118:	030a9009 	0x30a9009
 11c:	000e0138 	0xe0138
 120:	d3d2d1d0 	0xd3d2d1d0
 124:	d7d6d5d4 	ldc1	$f22,-10796(s8)
 128:	0000dfde 	0xdfde
 12c:	0000000c 	syscall
 130:	ffffffff 	sdc3	$31,-1(ra)
 134:	7c010001 	0x7c010001
 138:	001d0d1f 	0x1d0d1f
 13c:	0000001c 	0x1c
 140:	0000012c 	0x12c
 144:	80000a28 	lb	zero,2600(zero)
 148:	00000064 	0x64
 14c:	44200e44 	0x44200e44
 150:	92480490 	lbu	t0,1168(s2)
 154:	03915002 	0x3915002
 158:	0000019f 	0x19f
 15c:	0000000c 	syscall
 160:	ffffffff 	sdc3	$31,-1(ra)
 164:	7c010001 	0x7c010001
 168:	001d0d1f 	0x1d0d1f
 16c:	0000000c 	syscall
 170:	0000015c 	0x15c
 174:	80000a8c 	lb	zero,2700(zero)
 178:	00000010 	mfhi	zero
 17c:	0000000c 	syscall
 180:	ffffffff 	sdc3	$31,-1(ra)
 184:	7c010001 	0x7c010001
 188:	001d0d1f 	0x1d0d1f
 18c:	00000024 	and	zero,zero,zero
 190:	0000017c 	0x17c
 194:	80000b54 	lb	zero,2900(zero)
 198:	000000c0 	ehb
 19c:	44280e44 	0x44280e44
 1a0:	91480292 	lbu	t0,658(t2)
 1a4:	04904803 	bltzal	a0,121b4 <ABIFlags_flags2+0x121a0>
 1a8:	02019f4c 	syscall	0x8067d
 1ac:	d0000e9c 	0xd0000e9c
 1b0:	00dfd2d1 	0xdfd2d1
 1b4:	0000000c 	syscall
 1b8:	0000017c 	0x17c
 1bc:	80000c14 	lb	zero,3092(zero)
 1c0:	00000008 	jr	zero
 1c4:	00000024 	and	zero,zero,zero
 1c8:	0000017c 	0x17c
 1cc:	80000c1c 	lb	zero,3100(zero)
 1d0:	000005f0 	tge	zero,zero,0x17
 1d4:	48200e48 	0x48200e48
 1d8:	9f4c0490 	0x9f4c0490
 1dc:	48029201 	0x48029201
 1e0:	cc030391 	pref	0x3,913(zero)
 1e4:	d0000e05 	0xd0000e05
 1e8:	00dfd2d1 	0xdfd2d1
 1ec:	0000000c 	syscall
 1f0:	ffffffff 	sdc3	$31,-1(ra)
 1f4:	7c010001 	0x7c010001
 1f8:	001d0d1f 	0x1d0d1f
 1fc:	0000001c 	0x1c
 200:	000001ec 	0x1ec
 204:	80001448 	lb	zero,5192(zero)
 208:	00000050 	0x50
 20c:	50200e44 	beqzl	at,3b20 <ABIFlags_flags2+0x3b0c>
 210:	0290019f 	0x290019f
 214:	d0000e7c 	0xd0000e7c
 218:	000000df 	0xdf
 21c:	0000000c 	syscall
 220:	ffffffff 	sdc3	$31,-1(ra)
 224:	7c010001 	0x7c010001
 228:	001d0d1f 	0x1d0d1f
 22c:	0000000c 	syscall
 230:	0000021c 	0x21c
 234:	80001498 	lb	zero,5272(zero)
 238:	00000014 	0x14
 23c:	0000000c 	syscall
 240:	ffffffff 	sdc3	$31,-1(ra)
 244:	7c010001 	0x7c010001
 248:	001d0d1f 	0x1d0d1f
 24c:	0000000c 	syscall
 250:	0000023c 	0x23c
 254:	800014ac 	lb	zero,5292(zero)
 258:	0000000c 	syscall

Disassembly of section .debug_str:

00000000 <.debug_str>:
   0:	20554e47 	addi	s5,v0,20039
   4:	2e342043 	sltiu	s4,s1,8259
   8:	20322e39 	addi	s2,at,11833
   c:	6c656d2d 	0x6c656d2d
  10:	736d2d20 	0x736d2d20
  14:	2d74666f 	sltiu	s4,t3,26223
  18:	616f6c66 	0x616f6c66
  1c:	6d2d2074 	0x6d2d2074
  20:	68637261 	0x68637261
  24:	34316d3d 	ori	s1,at,0x6d3d
  28:	2d20636b 	sltiu	zero,t1,25451
  2c:	746c706d 	jalx	1b1c1b4 <__memory_size+0x1afc9b4>
  30:	696d2d20 	0x696d2d20
  34:	32337370 	andi	s3,s1,0x7370
  38:	2d203272 	sltiu	zero,t1,12914
  3c:	6e79736d 	0x6e79736d
  40:	2d206963 	sltiu	zero,t1,26979
  44:	6962616d 	0x6962616d
  48:	2032333d 	addi	s2,at,13117
  4c:	2d20672d 	sltiu	zero,t1,26413
  50:	4900304f 	bc2f	c190 <ABIFlags_flags2+0xc17c>
  54:	57535f4f 	bnel	k0,s3,17d94 <ABIFlags_flags2+0x17d80>
  58:	48435449 	0x48435449
  5c:	43005345 	c0	0x1005345
  60:	736d5c3a 	0x736d5c3a
  64:	34367379 	ori	s6,at,0x7379
  68:	6d6f685c 	0x6d6f685c
  6c:	654c5c65 	0x654c5c65
  70:	72735c65 	s8sdi	xr1,s3,-41,
  74:	65525c63 	0x65525c63
  78:	77536461 	jalx	d4d9184 <__memory_size+0xd4b9984>
  7c:	68637469 	0x68637469
  80:	64007365 	0x64007365
  84:	79616c65 	st.h	$w17,706(t5)
  88:	69616d00 	0x69616d00
  8c:	00632e6e 	0x632e6e
  90:	4c5f4f49 	0x4c5f4f49
  94:	00524445 	0x524445
  98:	6e69616d 	0x6e69616d
  9c:	69777300 	0x69777300
  a0:	65686374 	0x65686374
  a4:	6f6c0073 	0x6f6c0073
  a8:	6c20676e 	0x6c20676e
  ac:	20676e6f 	addi	a3,v1,28271
  b0:	00746e69 	0x746e69
  b4:	726f6873 	d32sar	xr1,xr10,xr13,xr11,9
  b8:	6e752074 	0x6e752074
  bc:	6e676973 	0x6e676973
  c0:	69206465 	0x69206465
  c4:	5f00746e 	bgtzl	t8,1d280 <ABIFlags_flags2+0x1d26c>
  c8:	6574615f 	0x6574615f
  cc:	5f746978 	0x5f746978
  d0:	65707974 	0x65707974
  d4:	752f0073 	jalx	4bc01cc <__memory_size+0x4ba09cc>
  d8:	2f726573 	sltiu	s2,k1,25971
  dc:	7370696d 	s16sdi	xr5,k1,52,
  e0:	2f747773 	sltiu	s4,k1,30579
  e4:	2f746967 	sltiu	s4,k1,26983
  e8:	6c77656e 	0x6c77656e
  ec:	6e2f6269 	0x6e2f6269
  f0:	696c7765 	0x696c7765
  f4:	696c2f62 	0x696c2f62
  f8:	732f6362 	s8ldd	xr13,t9,-40,ptn3
  fc:	696c6474 	0x696c6474
 100:	74612f62 	jalx	184bd88 <__memory_size+0x182c588>
 104:	74697865 	jalx	1a5e194 <__memory_size+0x1a3e994>
 108:	6c00632e 	0x6c00632e
 10c:	20676e6f 	addi	a3,v1,28271
 110:	676e6f6c 	0x676e6f6c
 114:	736e7520 	0x736e7520
 118:	656e6769 	0x656e6769
 11c:	6e692064 	0x6e692064
 120:	4e470074 	c3	0x470074
 124:	20432055 	addi	v1,v0,8277
 128:	2e392e34 	sltiu	t9,s1,11828
 12c:	6d2d2032 	0x6d2d2032
 130:	2d206c65 	sltiu	zero,t1,27749
 134:	666f736d 	0x666f736d
 138:	6c662d74 	0x6c662d74
 13c:	2074616f 	addi	s4,v1,24943
 140:	6e696d2d 	0x6e696d2d
 144:	6c726574 	0x6c726574
 148:	2d6b6e69 	sltiu	t3,t3,28265
 14c:	7370696d 	s16sdi	xr5,k1,52,
 150:	2d203631 	sltiu	zero,t1,13873
 154:	646f636d 	0x646f636d
 158:	65722d65 	0x65722d65
 15c:	62616461 	0x62616461
 160:	703d656c 	s16ldi	xr5,at,-334,ptn3
 164:	6c657263 	0x6c657263
 168:	6e6d2d20 	0x6e6d2d20
 16c:	70672d6f 	0x70672d6f
 170:	2074706f 	addi	s4,v1,28783
 174:	6f736d2d 	0x6f736d2d
 178:	662d7466 	0x662d7466
 17c:	74616f6c 	jalx	185bdb0 <__memory_size+0x183c5b0>
 180:	616d2d20 	0x616d2d20
 184:	3d686372 	0x3d686372
 188:	7370696d 	s16sdi	xr5,k1,52,
 18c:	32723233 	andi	s2,s3,0x3233
 190:	706d2d20 	0x706d2d20
 194:	2d20746c 	sltiu	zero,t1,29804
 198:	7370696d 	s16sdi	xr5,k1,52,
 19c:	32723233 	andi	s2,s3,0x3233
 1a0:	736d2d20 	0x736d2d20
 1a4:	69636e79 	0x69636e79
 1a8:	616d2d20 	0x616d2d20
 1ac:	333d6962 	andi	sp,t9,0x6962
 1b0:	672d2032 	0x672d2032
 1b4:	324f2d20 	andi	t7,s2,0x2d20
 1b8:	734f2d20 	0x734f2d20
 1bc:	6e662d20 	0x6e662d20
 1c0:	75622d6f 	jalx	588b5bc <__memory_size+0x586bdbc>
 1c4:	69746c69 	0x69746c69
 1c8:	6e75006e 	0x6e75006e
 1cc:	6e676973 	0x6e676973
 1d0:	63206465 	0x63206465
 1d4:	00726168 	0x726168
 1d8:	65725f5f 	0x65725f5f
 1dc:	74736967 	jalx	1cda59c <__memory_size+0x1cbad9c>
 1e0:	655f7265 	0x655f7265
 1e4:	70746978 	0x70746978
 1e8:	00636f72 	tlt	v1,v1,0x1bd
 1ec:	74655f5f 	jalx	1957d7c <__memory_size+0x193857c>
 1f0:	656e6f5f 	0x656e6f5f
 1f4:	00746978 	0x746978
 1f8:	74655f5f 	jalx	1957d7c <__memory_size+0x193857c>
 1fc:	6178635f 	0x6178635f
 200:	6f687300 	0x6f687300
 204:	69207472 	0x69207472
 208:	5f00746e 	bgtzl	t8,1d3c4 <ABIFlags_flags2+0x1d3b0>
 20c:	5f74655f 	0x5f74655f
 210:	78657461 	ld.h	$w17,202(t6)
 214:	73007469 	0x73007469
 218:	74657a69 	jalx	195e9a4 <__memory_size+0x193f1a4>
 21c:	00657079 	0x657079
 220:	6f73645f 	0x6f73645f
 224:	6e61685f 	0x6e61685f
 228:	00656c64 	0x656c64
 22c:	616e665f 	0x616e665f
 230:	00736772 	tlt	v1,s3,0x19d
 234:	6e61725f 	0x6e61725f
 238:	00383464 	0x383464
 23c:	656d655f 	0x656d655f
 240:	6e656772 	0x6e656772
 244:	5f007963 	bgtzl	t8,1e7d4 <ABIFlags_flags2+0x1e7c0>
 248:	74726377 	jalx	1c98ddc <__memory_size+0x1c795dc>
 24c:	5f626d6f 	0x5f626d6f
 250:	74617473 	jalx	185d1cc <__memory_size+0x183d9cc>
 254:	775f0065 	jalx	d7c0194 <__memory_size+0xd7a0994>
 258:	74727363 	jalx	1c9cd8c <__memory_size+0x1c7d58c>
 25c:	73626d6f 	0x73626d6f
 260:	6174735f 	0x6174735f
 264:	5f006574 	bgtzl	t8,19838 <ABIFlags_flags2+0x19824>
 268:	7366626c 	s16ldi	xr9,k1,-208,ptn0
 26c:	00657a69 	0x657a69
 270:	72626d5f 	udi15	s3,v0,t5,0x15
 274:	63776f74 	0x63776f74
 278:	6174735f 	0x6174735f
 27c:	5f006574 	bgtzl	t8,19850 <ABIFlags_flags2+0x1983c>
 280:	6f746377 	0x6f746377
 284:	735f626d 	s16sdi	xr9,k0,-80,
 288:	65746174 	0x65746174
 28c:	745f5f00 	jalx	17d7c00 <__memory_size+0x17b8400>
 290:	65735f6d 	0x65735f6d
 294:	755f0063 	jalx	57c018c <__memory_size+0x57a098c>
 298:	00667562 	0x667562
 29c:	7361625f 	udi15	k1,at,t4,0x9
 2a0:	5f5f0065 	0x5f5f0065
 2a4:	685f6d74 	0x685f6d74
 2a8:	0072756f 	0x72756f
 2ac:	66735f5f 	0x66735f5f
 2b0:	6e6f5f00 	0x6e6f5f00
 2b4:	6978655f 	0x6978655f
 2b8:	72615f74 	q16sll	xr13,xr7,xr5,xr8,9
 2bc:	5f007367 	bgtzl	t8,1d05c <ABIFlags_flags2+0x1d048>
 2c0:	6b6f6f63 	0x6b6f6f63
 2c4:	5f006569 	bgtzl	t8,1986c <ABIFlags_flags2+0x19858>
 2c8:	6c67735f 	0x6c67735f
 2cc:	5f006575 	bgtzl	t8,198a4 <ABIFlags_flags2+0x19890>
 2d0:	67616c66 	0x67616c66
 2d4:	695f0073 	0x695f0073
 2d8:	78635f73 	0x78635f73
 2dc:	735f0061 	0x735f0061
 2e0:	6e696474 	0x6e696474
 2e4:	6c625f00 	0x6c625f00
 2e8:	7a69736b 	0x7a69736b
 2ec:	635f0065 	0x635f0065
 2f0:	75627476 	jalx	589d1d8 <__memory_size+0x587d9d8>
 2f4:	6f5f0066 	0x6f5f0066
 2f8:	65736666 	0x65736666
 2fc:	6d5f0074 	0x6d5f0074
 300:	74727362 	jalx	1c9cd88 <__memory_size+0x1c7d588>
 304:	7363776f 	0x7363776f
 308:	6174735f 	0x6174735f
 30c:	5f006574 	bgtzl	t8,198e0 <ABIFlags_flags2+0x198cc>
 310:	6c72626d 	0x6c72626d
 314:	735f6e65 	s8sdi	xr9,k0,-37,
 318:	65746174 	0x65746174
 31c:	73752f00 	0x73752f00
 320:	6d2f7265 	0x6d2f7265
 324:	73737069 	0x73737069
 328:	672f7477 	0x672f7477
 32c:	6e2f7469 	0x6e2f7469
 330:	696c7765 	0x696c7765
 334:	656e2f62 	0x656e2f62
 338:	62696c77 	0x62696c77
 33c:	62696c2f 	0x62696c2f
 340:	74732f63 	jalx	1ccbd8c <__memory_size+0x1cac58c>
 344:	62696c64 	0x62696c64
 348:	6978652f 	0x6978652f
 34c:	00632e74 	teq	v1,v1,0xb9
 350:	736e665f 	udi15	k1,t6,t4,0x19
 354:	69735f00 	0x69735f00
 358:	5f006e67 	bgtzl	t8,1bcf8 <ABIFlags_flags2+0x1bce4>
 35c:	636f6c66 	0x636f6c66
 360:	00745f6b 	0x745f6b
 364:	6474735f 	0x6474735f
 368:	00727265 	0x727265
 36c:	6769425f 	0x6769425f
 370:	00746e69 	0x746e69
 374:	6d61675f 	0x6d61675f
 378:	735f616d 	s16sdi	xr5,k0,-80,
 37c:	676e6769 	0x676e6769
 380:	5f006d61 	bgtzl	t8,1b908 <ABIFlags_flags2+0x1b8f4>
 384:	64616572 	0x64616572
 388:	65725f00 	0x65725f00
 38c:	746c7573 	jalx	1b1d5cc <__memory_size+0x1afddcc>
 390:	5f006b5f 	bgtzl	t8,1b110 <ABIFlags_flags2+0x1b0fc>
 394:	006d745f 	0x6d745f
 398:	63775f5f 	0x63775f5f
 39c:	5f006268 	bgtzl	t8,18d40 <ABIFlags_flags2+0x18d2c>
 3a0:	6f647473 	0x6f647473
 3a4:	5f007475 	bgtzl	t8,1d57c <ABIFlags_flags2+0x1d568>
 3a8:	6c747663 	0x6c747663
 3ac:	5f006e65 	bgtzl	t8,1bd44 <ABIFlags_flags2+0x1bd30>
 3b0:	656c6966 	0x656c6966
 3b4:	696e5f00 	0x696e5f00
 3b8:	0073626f 	0x73626f
 3bc:	6574615f 	0x6574615f
 3c0:	30746978 	andi	s4,v1,0x6978
 3c4:	69735f00 	0x69735f00
 3c8:	6c616e67 	0x6c616e67
 3cc:	6675625f 	0x6675625f
 3d0:	73615f00 	0x73615f00
 3d4:	6d697463 	0x6d697463
 3d8:	75625f65 	jalx	5897d94 <__memory_size+0x5878594>
 3dc:	725f0066 	s32mul	xr1,xr0,s2,ra
 3e0:	6c757365 	0x6c757365
 3e4:	5f5f0074 	0x5f5f0074
 3e8:	00686377 	0x686377
 3ec:	746e6977 	jalx	1b9a5dc <__memory_size+0x1b7addc>
 3f0:	5f00745f 	bgtzl	t8,1d570 <ABIFlags_flags2+0x1d55c>
 3f4:	67616c66 	0x67616c66
 3f8:	5f003273 	bgtzl	t8,cdc8 <ABIFlags_flags2+0xcdb4>
 3fc:	74697277 	jalx	1a5c9dc <__memory_size+0x1a3d1dc>
 400:	6e5f0065 	0x6e5f0065
 404:	66747865 	0x66747865
 408:	745f5f00 	jalx	17d7c00 <__memory_size+0x17b8400>
 40c:	6f6d5f6d 	0x6f6d5f6d
 410:	5f5f006e 	0x5f5f006e
 414:	64696473 	0x64696473
 418:	74696e69 	jalx	1a5b9a4 <__memory_size+0x1a3c1a4>
 41c:	666f5f00 	0x666f5f00
 420:	00745f66 	0x745f66
 424:	61635f5f 	0x61635f5f
 428:	655f6c6c 	0x655f6c6c
 42c:	70746978 	0x70746978
 430:	73636f72 	0x73636f72
 434:	72665f00 	0x72665f00
 438:	696c6565 	0x696c6565
 43c:	5f007473 	bgtzl	t8,1d60c <ABIFlags_flags2+0x1d5f8>
 440:	4b434f4c 	c2	0x1434f4c
 444:	4345525f 	c0	0x145525f
 448:	49535255 	0x49535255
 44c:	545f4556 	bnel	v0,ra,119a8 <ABIFlags_flags2+0x11994>
 450:	656e5f00 	0x656e5f00
 454:	685f0077 	0x685f0077
 458:	7272655f 	udi15	s3,s2,t4,0x15
 45c:	5f006f6e 	bgtzl	t8,1c218 <ABIFlags_flags2+0x1c204>
 460:	5f6d745f 	0x5f6d745f
 464:	79616479 	0x79616479
 468:	735f5f00 	0x735f5f00
 46c:	00667562 	0x667562
 470:	626f695f 	0x626f695f
 474:	5f5f0073 	0x5f5f0073
 478:	454c4946 	bc1any4f	$fcc3,12994 <ABIFlags_flags2+0x12980>
 47c:	626d5f00 	0x626d5f00
 480:	74617473 	jalx	185d1cc <__memory_size+0x183d9cc>
 484:	00745f65 	0x745f65
 488:	46735f5f 	c1	0x735f5f
 48c:	00454c49 	0x454c49
 490:	73626d5f 	udi15	k1,v0,t5,0x15
 494:	65746174 	0x65746174
 498:	61725f00 	0x61725f00
 49c:	6e5f646e 	0x6e5f646e
 4a0:	00747865 	0x747865
 4a4:	6c626d5f 	0x6c626d5f
 4a8:	735f6e65 	s8sdi	xr9,k0,-37,
 4ac:	65746174 	0x65746174
 4b0:	6e695f00 	0x6e695f00
 4b4:	695f0063 	0x695f0063
 4b8:	5f00646e 	bgtzl	t8,19674 <ABIFlags_flags2+0x19660>
 4bc:	72727563 	s8std	xr5,s3,-99,
 4c0:	5f746e65 	0x5f746e65
 4c4:	61636f6c 	0x61636f6c
 4c8:	5f00656c 	bgtzl	t8,19a7c <ABIFlags_flags2+0x19a68>
 4cc:	656c635f 	0x656c635f
 4d0:	70756e61 	0x70756e61
 4d4:	616d5f00 	0x616d5f00
 4d8:	73647778 	0x73647778
 4dc:	65725f00 	0x65725f00
 4e0:	00746e65 	0x746e65
 4e4:	6565735f 	0x6565735f
 4e8:	5f5f0064 	0x5f5f0064
 4ec:	6e756f63 	0x6e756f63
 4f0:	5f5f0074 	0x5f5f0074
 4f4:	756c6176 	jalx	5b185d8 <__memory_size+0x5af8dd8>
 4f8:	735f0065 	s8sdi	xr1,k0,-64,
 4fc:	006b6565 	0x6b6565
 500:	6f70665f 	0x6f70665f
 504:	00745f73 	tltu	v1,s4,0x17d
 508:	6d745f5f 	0x6d745f5f
 50c:	6165795f 	0x6165795f
 510:	5f5f0072 	0x5f5f0072
 514:	6d5f6d74 	0x6d5f6d74
 518:	5f006e69 	bgtzl	t8,1bec0 <ABIFlags_flags2+0x1beac>
 51c:	746c756d 	jalx	1b1d5b4 <__memory_size+0x1afddb4>
 520:	74735f00 	jalx	1cd7c00 <__memory_size+0x1cb8400>
 524:	6b6f7472 	0x6b6f7472
 528:	73616c5f 	udi15	k1,at,t5,0x11
 52c:	665f0074 	0x665f0074
 530:	7079746e 	0x7079746e
 534:	5f007365 	bgtzl	t8,1d2cc <ABIFlags_flags2+0x1d2b8>
 538:	00646461 	0x646461
 53c:	4c555f5f 	0x4c555f5f
 540:	00676e6f 	0x676e6f
 544:	7465675f 	jalx	1959d7c <__memory_size+0x193a57c>
 548:	65746164 	0x65746164
 54c:	7272655f 	udi15	s3,s2,t4,0x15
 550:	6c675f00 	0x6c675f00
 554:	6c61626f 	0x6c61626f
 558:	706d695f 	udi15	v1,t5,t5,0x5
 55c:	5f657275 	0x5f657275
 560:	00727470 	tge	v1,s2,0x1d1
 564:	7275635f 	udi15	s3,s5,t4,0xd
 568:	746e6572 	jalx	1b995c8 <__memory_size+0x1b79dc8>
 56c:	7461635f 	jalx	1858d7c <__memory_size+0x183957c>
 570:	726f6765 	s8sdi	xr13,s3,-39,ptn3
 574:	755f0079 	jalx	57c01e4 <__memory_size+0x57a09e4>
 578:	6573756e 	0x6573756e
 57c:	61725f64 	0x61725f64
 580:	5f00646e 	bgtzl	t8,1973c <ABIFlags_flags2+0x19728>
 584:	00736477 	0x736477
 588:	6d745f5f 	0x6d745f5f
 58c:	6164775f 	0x6164775f
 590:	675f0079 	0x675f0079
 594:	0065756c 	0x65756c
 598:	616d6e5f 	0x616d6e5f
 59c:	636f6c6c 	0x636f6c6c
 5a0:	366c5f00 	ori	t4,s3,0x5f00
 5a4:	625f6134 	0x625f6134
 5a8:	5f006675 	bgtzl	t8,19f80 <ABIFlags_flags2+0x19f6c>
 5ac:	5f676973 	0x5f676973
 5b0:	636e7566 	0x636e7566
 5b4:	626e5f00 	0x626e5f00
 5b8:	5f006675 	bgtzl	t8,19f90 <ABIFlags_flags2+0x19f7c>
 5bc:	73756e75 	q16slr	xr9,xr11,xr5,xr13,13
 5c0:	5f006465 	bgtzl	t8,19758 <ABIFlags_flags2+0x19744>
 5c4:	5f6d745f 	0x5f6d745f
 5c8:	73647369 	0x73647369
 5cc:	6c5f0074 	0x6c5f0074
 5d0:	6c61636f 	0x6c61636f
 5d4:	656d6974 	0x656d6974
 5d8:	6675625f 	0x6675625f
 5dc:	6c635f00 	0x6c635f00
 5e0:	0065736f 	0x65736f
 5e4:	3834725f 	xori	s4,at,0x725f
 5e8:	626d5f00 	0x626d5f00
 5ec:	63776f74 	0x63776f74
 5f0:	6174735f 	0x6174735f
 5f4:	5f006574 	bgtzl	t8,19bc8 <ABIFlags_flags2+0x19bb4>
 5f8:	00733570 	tge	v1,s3,0xd5
 5fc:	6d745f5f 	0x6d745f5f
 600:	61646d5f 	0x61646d5f
 604:	6d690079 	0x6d690079
 608:	65727570 	0x65727570
 60c:	7461645f 	jalx	185917c <__memory_size+0x183997c>
 610:	752f0061 	jalx	4bc0184 <__memory_size+0x4ba0984>
 614:	2f726573 	sltiu	s2,k1,25971
 618:	7370696d 	s16sdi	xr5,k1,52,
 61c:	2f747773 	sltiu	s4,k1,30579
 620:	2f746967 	sltiu	s4,k1,26983
 624:	6c77656e 	0x6c77656e
 628:	6e2f6269 	0x6e2f6269
 62c:	696c7765 	0x696c7765
 630:	696c2f62 	0x696c2f62
 634:	722f6362 	s8ldd	xr13,s1,-40,ptn3
 638:	746e6565 	jalx	1b99594 <__memory_size+0x1b79d94>
 63c:	706d692f 	0x706d692f
 640:	2e657275 	sltiu	a1,s3,29301
 644:	69730063 	0x69730063
 648:	745f657a 	jalx	17d95e8 <__memory_size+0x17b9de8>
 64c:	73752f00 	0x73752f00
 650:	6d2f7265 	0x6d2f7265
 654:	73737069 	0x73737069
 658:	672f7477 	0x672f7477
 65c:	6e2f7469 	0x6e2f7469
 660:	696c7765 	0x696c7765
 664:	656e2f62 	0x656e2f62
 668:	62696c77 	0x62696c77
 66c:	62696c2f 	0x62696c2f
 670:	74732f63 	jalx	1ccbd8c <__memory_size+0x1cac58c>
 674:	62696c64 	0x62696c64
 678:	615f5f2f 	0x615f5f2f
 67c:	69786574 	0x69786574
 680:	00632e74 	teq	v1,v1,0xb9
 684:	65657266 	0x65657266
 688:	73616c00 	0x73616c00
 68c:	72007074 	q16sll	xr1,xr12,xr1,xr0,8
 690:	61747365 	0x61747365
 694:	2f007472 	sltiu	zero,t8,29810
 698:	72657375 	q16slr	xr13,xr12,xr5,xr9,9
 69c:	70696d2f 	0x70696d2f
 6a0:	74777373 	jalx	1ddcdcc <__memory_size+0x1dbd5cc>
 6a4:	7469672f 	jalx	1a59cbc <__memory_size+0x1a3a4bc>
 6a8:	77656e2f 	jalx	d95b8bc <__memory_size+0xd93c0bc>
 6ac:	2f62696c 	sltiu	v0,k1,26988
 6b0:	6c77656e 	0x6c77656e
 6b4:	6c2f6269 	0x6c2f6269
 6b8:	2f636269 	sltiu	v1,k1,25193
 6bc:	6c647473 	0x6c647473
 6c0:	5f2f6269 	0x5f2f6269
 6c4:	6c61635f 	0x6c61635f
 6c8:	74615f6c 	jalx	1857db0 <__memory_size+0x18385b0>
 6cc:	74697865 	jalx	1a5e194 <__memory_size+0x1a3e994>
 6d0:	5f00632e 	bgtzl	t8,1938c <ABIFlags_flags2+0x19378>
 6d4:	6574615f 	0x6574615f
 6d8:	5f746978 	0x5f746978
 6dc:	6b636f6c 	0x6b636f6c
 6e0:	554e4700 	bnel	t2,t6,122e4 <ABIFlags_flags2+0x122d0>
 6e4:	34204320 	ori	zero,at,0x4320
 6e8:	322e392e 	andi	t6,s1,0x392e
 6ec:	656d2d20 	0x656d2d20
 6f0:	6d2d206c 	0x6d2d206c
 6f4:	65646f63 	0x65646f63
 6f8:	6165722d 	0x6165722d
 6fc:	6c626164 	0x6c626164
 700:	63703d65 	0x63703d65
 704:	206c6572 	addi	t4,v1,25970
 708:	6e696d2d 	0x6e696d2d
 70c:	6c726574 	0x6c726574
 710:	2d6b6e69 	sltiu	t3,t3,28265
 714:	7370696d 	s16sdi	xr5,k1,52,
 718:	2d203631 	sltiu	zero,t1,13873
 71c:	646f636d 	0x646f636d
 720:	65722d65 	0x65722d65
 724:	62616461 	0x62616461
 728:	703d656c 	s16ldi	xr5,at,-334,ptn3
 72c:	6c657263 	0x6c657263
 730:	6e6d2d20 	0x6e6d2d20
 734:	70672d6f 	0x70672d6f
 738:	2074706f 	addi	s4,v1,28783
 73c:	6f736d2d 	0x6f736d2d
 740:	662d7466 	0x662d7466
 744:	74616f6c 	jalx	185bdb0 <__memory_size+0x183c5b0>
 748:	616d2d20 	0x616d2d20
 74c:	3d686372 	0x3d686372
 750:	7370696d 	s16sdi	xr5,k1,52,
 754:	32723233 	andi	s2,s3,0x3233
 758:	706d2d20 	0x706d2d20
 75c:	2d20746c 	sltiu	zero,t1,29804
 760:	7370696d 	s16sdi	xr5,k1,52,
 764:	32723233 	andi	s2,s3,0x3233
 768:	736d2d20 	0x736d2d20
 76c:	69636e79 	0x69636e79
 770:	616d2d20 	0x616d2d20
 774:	333d6962 	andi	sp,t9,0x6962
 778:	672d2032 	0x672d2032
 77c:	20672d20 	addi	a3,v1,11552
 780:	20324f2d 	addi	s2,at,20269
 784:	20734f2d 	addi	s3,v1,20269
 788:	20324f2d 	addi	s2,at,20269
 78c:	20324f2d 	addi	s2,at,20269
 790:	00734f2d 	0x734f2d
 794:	65725f5f 	0x65725f5f
 798:	6e727574 	0x6e727574
 79c:	5f6f745f 	0x5f6f745f
 7a0:	746f6f62 	jalx	1bdbd88 <__memory_size+0x1bbc588>
 7a4:	69786500 	0x69786500
 7a8:	6f635f74 	0x6f635f74
 7ac:	5f006564 	bgtzl	t8,19d40 <ABIFlags_flags2+0x19d2c>
 7b0:	6978655f 	0x6978655f
 7b4:	5f5f0074 	0x5f5f0074
 7b8:	5f657375 	0x5f657375
 7bc:	70637865 	s8sdi	xr1,v1,-34,ptn0
 7c0:	6f625f74 	0x6f625f74
 7c4:	5f00746f 	bgtzl	t8,1d984 <ABIFlags_flags2+0x1d970>
 7c8:	746e695f 	jalx	1b9a57c <__memory_size+0x1b7ad7c>
 7cc:	745f3233 	jalx	17cc8cc <__memory_size+0x17ad0cc>
 7d0:	67726100 	0x67726100
 7d4:	752f0031 	jalx	4bc00c4 <__memory_size+0x4ba08c4>
 7d8:	2f726573 	sltiu	s2,k1,25971
 7dc:	7370696d 	s16sdi	xr5,k1,52,
 7e0:	2f747773 	sltiu	s4,k1,30579
 7e4:	2f746967 	sltiu	s4,k1,26983
 7e8:	6c77656e 	0x6c77656e
 7ec:	6c2f6269 	0x6c2f6269
 7f0:	6c676269 	0x6c676269
 7f4:	2f73736f 	sltiu	s3,k1,29551
 7f8:	7370696d 	s16sdi	xr5,k1,52,
 7fc:	6968752f 	0x6968752f
 800:	6978655f 	0x6978655f
 804:	00632e74 	teq	v1,v1,0xb9
 808:	65675f5f 	0x65675f5f
 80c:	74735f74 	jalx	1cd7dd0 <__memory_size+0x1cb85d0>
 810:	75747261 	jalx	5d1c984 <__memory_size+0x5cfd184>
 814:	45425f70 	0x45425f70
 818:	752f0056 	jalx	4bc0158 <__memory_size+0x4ba0958>
 81c:	2f726573 	sltiu	s2,k1,25971
 820:	7370696d 	s16sdi	xr5,k1,52,
 824:	2f747773 	sltiu	s4,k1,30579
 828:	2f746967 	sltiu	s4,k1,26983
 82c:	6c77656e 	0x6c77656e
 830:	6c2f6269 	0x6c2f6269
 834:	6c676269 	0x6c676269
 838:	2f73736f 	sltiu	s3,k1,29551
 83c:	7370696d 	s16sdi	xr5,k1,52,
 840:	6968752f 	0x6968752f
 844:	7465675f 	jalx	1959d7c <__memory_size+0x193a57c>
 848:	6d656d5f 	0x6d656d5f
 84c:	666e695f 	0x666e695f
 850:	00632e6f 	0x632e6f
 854:	69736369 	0x69736369
 858:	7300657a 	q8mac	xr5,xr9,xr1,xr0,SS
 85c:	6d656d5f 	0x6d656d5f
 860:	74656700 	jalx	1959c00 <__memory_size+0x193a400>
 864:	6d656d5f 	0x6d656d5f
 868:	666e695f 	0x666e695f
 86c:	6364006f 	0x6364006f
 870:	657a6973 	0x657a6973
 874:	6d5f5f00 	0x6d5f5f00
 878:	726f6d65 	s8sdi	xr5,s3,-37,ptn3
 87c:	69735f79 	0x69735f79
 880:	7000657a 	q8mac	xr5,xr9,xr1,xr0,AA
 884:	6e737475 	0x6e737475
 888:	5f5f0073 	0x5f5f0073
 88c:	69616863 	0x69616863
 890:	68755f6e 	0x68755f6e
 894:	78655f69 	0x78655f69
 898:	00747063 	0x747063
 89c:	73756163 	s8std	xr5,k1,88,
 8a0:	68730065 	0x68730065
 8a4:	00746669 	0x746669
 8a8:	69755f5f 	0x69755f5f
 8ac:	3233746e 	andi	s3,s1,0x746e
 8b0:	6c00745f 	0x6c00745f
 8b4:	006b6e69 	0x6b6e69
 8b8:	31746572 	andi	s4,t3,0x6572
 8bc:	74657200 	jalx	195c800 <__memory_size+0x193d000>
 8c0:	74730032 	jalx	1cc00c8 <__memory_size+0x1ca08c8>
 8c4:	6e656c72 	0x6e656c72
 8c8:	655f5f00 	0x655f5f00
 8cc:	74706378 	jalx	1c18de0 <__memory_size+0x1bf95e0>
 8d0:	6968755f 	0x6968755f
 8d4:	6264735f 	0x6264735f
 8d8:	70007062 	s8ldd	xr1,zero,28,ptn0
 8dc:	0074736f 	0x74736f
 8e0:	6573752f 	0x6573752f
 8e4:	696d2f72 	0x696d2f72
 8e8:	77737370 	jalx	dcdcdc0 <__memory_size+0xdcbd5c0>
 8ec:	69672f74 	0x69672f74
 8f0:	656e2f74 	0x656e2f74
 8f4:	62696c77 	0x62696c77
 8f8:	62696c2f 	0x62696c2f
 8fc:	736f6c67 	0x736f6c67
 900:	696d2f73 	0x696d2f73
 904:	6d2f7370 	0x6d2f7370
 908:	5f737069 	0x5f737069
 90c:	70637865 	s8sdi	xr1,v1,-34,ptn0
 910:	61685f74 	0x61685f74
 914:	656c646e 	0x656c646e
 918:	00632e72 	tlt	v1,v1,0xb9
 91c:	74637067 	jalx	18dc19c <__memory_size+0x18bc99c>
 920:	61620078 	0x61620078
 924:	64617664 	0x64617664
 928:	72007264 	s8ldi	xr9,s0,28,ptn0
 92c:	79746765 	st.h	$w29,744(t4)
 930:	5f006570 	bgtzl	t8,19ef4 <ABIFlags_flags2+0x19ee0>
 934:	6968755f 	0x6968755f
 938:	6378655f 	0x6378655f
 93c:	69747065 	0x69747065
 940:	5f006e6f 	bgtzl	t8,1c300 <ABIFlags_flags2+0x1c2ec>
 944:	6378655f 	0x6378655f
 948:	69747065 	0x69747065
 94c:	685f6e6f 	0x685f6e6f
 950:	6c646e61 	0x6c646e61
 954:	75700065 	jalx	5c00194 <__memory_size+0x5be0994>
 958:	646e7374 	0x646e7374
 95c:	69640073 	0x69640073
 960:	73746967 	0x73746967
 964:	67726100 	0x67726100
 968:	72610032 	0x72610032
 96c:	61003367 	0x61003367
 970:	00346772 	tlt	at,s4,0x19d
 974:	74617473 	jalx	185d1cc <__memory_size+0x183d9cc>
 978:	62007375 	0x62007375
 97c:	69706461 	0x69706461
 980:	7274736e 	0x7274736e
 984:	64616200 	0x64616200
 988:	74736e69 	jalx	1cdb9a4 <__memory_size+0x1cbc1a4>
 98c:	752f0072 	jalx	4bc01c8 <__memory_size+0x4ba09c8>
 990:	2f726573 	sltiu	s2,k1,25971
 994:	7370696d 	s16sdi	xr5,k1,52,
 998:	2f747773 	sltiu	s4,k1,30579
 99c:	2f746967 	sltiu	s4,k1,26983
 9a0:	6c77656e 	0x6c77656e
 9a4:	6e2f6269 	0x6e2f6269
 9a8:	696c7765 	0x696c7765
 9ac:	696c2f62 	0x696c2f62
 9b0:	6d2f6362 	0x6d2f6362
 9b4:	69686361 	0x69686361
 9b8:	6d2f656e 	0x6d2f656e
 9bc:	2f737069 	sltiu	s3,k1,28777
 9c0:	6c727473 	0x6c727473
 9c4:	632e6e65 	0x632e6e65
 9c8:	72726500 	0x72726500
 9cc:	745f6f6e 	jalx	17dbdb8 <__memory_size+0x17bc5b8>
 9d0:	2f00706d 	sltiu	zero,t8,28781
 9d4:	72657375 	q16slr	xr13,xr12,xr5,xr9,9
 9d8:	70696d2f 	0x70696d2f
 9dc:	74777373 	jalx	1ddcdcc <__memory_size+0x1dbd5cc>
 9e0:	7469672f 	jalx	1a59cbc <__memory_size+0x1a3a4bc>
 9e4:	77656e2f 	jalx	d95b8bc <__memory_size+0xd93c0bc>
 9e8:	2f62696c 	sltiu	v0,k1,26988
 9ec:	6762696c 	0x6762696c
 9f0:	73736f6c 	s16ldi	xr13,k1,438,ptn2
 9f4:	70696d2f 	0x70696d2f
 9f8:	68752f73 	0x68752f73
 9fc:	72775f69 	0x72775f69
 a00:	2e657469 	sltiu	a1,s3,29801
 a04:	656e0063 	0x656e0063
 a08:	72655f77 	q16sar	xr13,xr7,xr5,xr9,9
 a0c:	006f6e72 	tlt	v1,t7,0x1b9
 a10:	72655f5f 	udi15	s3,a1,t3,0x1d
 a14:	006f6e72 	tlt	v1,t7,0x1b9
 a18:	66667562 	0x66667562
 a1c:	2f007265 	sltiu	zero,t8,29285
 a20:	72657375 	q16slr	xr13,xr12,xr5,xr9,9
 a24:	70696d2f 	0x70696d2f
 a28:	74777373 	jalx	1ddcdcc <__memory_size+0x1dbd5cc>
 a2c:	7469672f 	jalx	1a59cbc <__memory_size+0x1a3a4bc>
 a30:	77656e2f 	jalx	d95b8bc <__memory_size+0xd93c0bc>
 a34:	2f62696c 	sltiu	v0,k1,26988
 a38:	6762696c 	0x6762696c
 a3c:	73736f6c 	s16ldi	xr13,k1,438,ptn2
 a40:	70696d2f 	0x70696d2f
 a44:	68752f73 	0x68752f73
 a48:	78655f69 	0x78655f69
 a4c:	74706563 	jalx	1c1958c <__memory_size+0x1bf9d8c>
 a50:	2e6e6f69 	sltiu	t6,s3,28521
 a54:	752f0063 	jalx	4bc018c <__memory_size+0x4ba098c>
 a58:	2f726573 	sltiu	s2,k1,25971
 a5c:	7370696d 	s16sdi	xr5,k1,52,
 a60:	2f747773 	sltiu	s4,k1,30579
 a64:	2f746967 	sltiu	s4,k1,26983
 a68:	6c77656e 	0x6c77656e
 a6c:	6e2f6269 	0x6e2f6269
 a70:	696c7765 	0x696c7765
 a74:	696c2f62 	0x696c2f62
 a78:	652f6362 	0x652f6362
 a7c:	6f6e7272 	0x6f6e7272
 a80:	7272652f 	0x7272652f
 a84:	632e6f6e 	0x632e6f6e
 a88:	Address 0x0000000000000a88 is out of bounds.


Disassembly of section .debug_loc:

00000000 <.debug_loc>:
   0:	00000000 	nop
   4:	00000014 	0x14
   8:	14540001 	bne	v0,s4,10 <ABIFlags_flags1>
   c:	1b000000 	blez	t8,10 <ABIFlags_flags1>
  10:	01000000 	0x1000000
  14:	001b5500 	sll	t2,k1,0x14
  18:	00280000 	0x280000
  1c:	00040000 	sll	zero,a0,0x0
  20:	9f5401f3 	0x9f5401f3
  24:	00000000 	nop
  28:	00000000 	nop
  2c:	00000000 	nop
  30:	00000017 	0x17
  34:	17540001 	bne	k0,s4,3c <ABIFlags_flags2+0x28>
  38:	3c000000 	lui	zero,0x0
  3c:	01000000 	0x1000000
  40:	00006000 	sll	t4,zero,0x0
  44:	00000000 	nop
  48:	00000000 	nop
  4c:	00640000 	0x640000
  50:	00010000 	sll	zero,at,0x0
  54:	00006454 	0x6454
  58:	0000fc00 	sll	ra,zero,0x10
  5c:	61000100 	0x61000100
  60:	000000fc 	0xfc
  64:	00000108 	0x108
  68:	01f30004 	sllv	zero,s3,t7
  6c:	00009f54 	0x9f54
  70:	00000000 	nop
  74:	00000000 	nop
  78:	00640000 	0x640000
  7c:	00010000 	sll	zero,at,0x0
  80:	00006455 	0x6455
  84:	00006b00 	sll	t5,zero,0xc
  88:	55000100 	bnezl	t0,48c <ABIFlags_flags2+0x478>
  8c:	0000006b 	0x6b
  90:	000000f8 	0xf8
  94:	f8620001 	sdc2	$2,1(v1)
  98:	08000000 	j	0 <hardware_exit_hook>
  9c:	04000001 	bltz	zero,a4 <ABIFlags_flags2+0x90>
  a0:	5501f300 	bnel	t0,at,ffffcca4 <__flash_start+0x403fcca4>
  a4:	0000009f 	0x9f
  a8:	00000000 	nop
  ac:	00000000 	nop
  b0:	00006400 	sll	t4,zero,0x10
  b4:	56000100 	bnezl	s0,4b8 <ABIFlags_flags2+0x4a4>
  b8:	00000064 	0x64
  bc:	0000006b 	0x6b
  c0:	6b560001 	0x6b560001
  c4:	f0000000 	0xf0000000
  c8:	01000000 	0x1000000
  cc:	00f06400 	0xf06400
  d0:	01080000 	0x1080000
  d4:	00040000 	sll	zero,a0,0x0
  d8:	9f5601f3 	0x9f5601f3
  dc:	00000000 	nop
  e0:	00000000 	nop
  e4:	00000000 	nop
  e8:	00000064 	0x64
  ec:	64570001 	0x64570001
  f0:	6b000000 	0x6b000000
  f4:	01000000 	0x1000000
  f8:	006b5700 	0x6b5700
  fc:	00f40000 	0xf40000
 100:	00010000 	sll	zero,at,0x0
 104:	0000f463 	0xf463
 108:	00010800 	sll	at,at,0x0
 10c:	f3000400 	0xf3000400
 110:	009f5701 	0x9f5701
 114:	00000000 	nop
 118:	94000000 	lhu	zero,0(zero)
 11c:	cc000000 	pref	0x0,0(zero)
 120:	04000000 	bltz	zero,124 <ABIFlags_flags2+0x110>
 124:	01887200 	0x1887200
 128:	0000009f 	0x9f
 12c:	00000000 	nop
 130:	00003400 	sll	a2,zero,0x10
 134:	00005800 	sll	t3,zero,0x0
 138:	52000100 	beqzl	s0,53c <ABIFlags_flags2+0x528>
 13c:	00000058 	0x58
 140:	0000006b 	0x6b
 144:	c8800003 	lwc2	$0,3(a0)
 148:	00006c02 	srl	t5,zero,0x10
 14c:	0000e000 	sll	gp,zero,0x0
 150:	52000100 	beqzl	s0,554 <ABIFlags_flags2+0x540>
 154:	00000000 	nop
 158:	00000000 	nop
 15c:	00000000 	nop
 160:	0000004c 	syscall	0x1
 164:	4c540001 	ldxc1	$f0,s4(v0)
 168:	60000000 	0x60000000
 16c:	01000001 	movf	zero,t0,$fcc0
 170:	01606600 	0x1606600
 174:	01800000 	0x1800000
 178:	00040000 	sll	zero,a0,0x0
 17c:	9f5401f3 	0x9f5401f3
 180:	00000000 	nop
 184:	00000000 	nop
 188:	00000000 	nop
 18c:	0000004c 	syscall	0x1
 190:	4c550001 	ldxc1	$f0,s5(v0)
 194:	68000000 	0x68000000
 198:	01000001 	movf	zero,t0,$fcc0
 19c:	01686400 	0x1686400
 1a0:	01800000 	0x1800000
 1a4:	00040000 	sll	zero,a0,0x0
 1a8:	9f5501f3 	0x9f5501f3
 1ac:	00000000 	nop
 1b0:	00000000 	nop
 1b4:	00000110 	0x110
 1b8:	00000118 	0x118
 1bc:	00820002 	0x820002
 1c0:	0000011c 	0x11c
 1c4:	00000124 	0x124
 1c8:	00520001 	0x520001
 1cc:	00000000 	nop
 1d0:	58000000 	blezl	zero,1d4 <ABIFlags_flags2+0x1c0>
 1d4:	1c000000 	bgtz	zero,1d8 <ABIFlags_flags2+0x1c4>
 1d8:	01000001 	movf	zero,t0,$fcc0
 1dc:	011c6200 	0x11c6200
 1e0:	01240000 	0x1240000
 1e4:	00010000 	sll	zero,at,0x0
 1e8:	00012452 	0x12452
 1ec:	00017000 	sll	t6,at,0x0
 1f0:	62000100 	0x62000100
 1f4:	00000000 	nop
 1f8:	00000000 	nop
 1fc:	00000110 	0x110
 200:	00000118 	0x118
 204:	00820007 	srav	zero,v0,a0
 208:	01882306 	0x1882306
 20c:	00011c9f 	0x11c9f
 210:	00012400 	sll	a0,at,0x10
 214:	72000400 	0x72000400
 218:	009f0188 	0x9f0188
 21c:	00000000 	nop
 220:	68000000 	0x68000000
 224:	54000000 	bnezl	zero,228 <ABIFlags_flags2+0x214>
 228:	01000001 	movf	zero,t0,$fcc0
 22c:	00006500 	sll	t4,zero,0x14
 230:	00000000 	nop
 234:	00780000 	0x780000
 238:	00e40000 	0xe40000
 23c:	00050000 	sll	zero,a1,0x0
 240:	24008531 	li	zero,-31439
 244:	0000e49f 	0xe49f
 248:	0000ec00 	sll	sp,zero,0x10
 24c:	31000500 	andi	zero,t0,0x500
 250:	9f240185 	0x9f240185
 254:	00000124 	0x124
 258:	00000154 	0x154
 25c:	85310005 	lh	s1,5(t1)
 260:	009f2400 	0x9f2400
 264:	00000000 	nop
 268:	90000000 	lbu	zero,0(zero)
 26c:	c7000000 	lwc1	$f0,0(t8)
 270:	01000000 	0x1000000
 274:	01245300 	0x1245300
 278:	013b0000 	0x13b0000
 27c:	00010000 	sll	zero,at,0x0
 280:	00014453 	0x14453
 284:	00014b00 	sll	t1,at,0xc
 288:	53000100 	beqzl	t8,68c <ABIFlags_flags2+0x678>
 28c:	00000000 	nop
 290:	00000000 	nop
 294:	000000b4 	teq	zero,zero,0x2
 298:	000000e0 	0xe0
 29c:	246e0001 	addiu	t6,v1,1
 2a0:	54000001 	bnezl	zero,2a8 <ABIFlags_flags2+0x294>
 2a4:	01000001 	movf	zero,t0,$fcc0
 2a8:	00006e00 	sll	t5,zero,0x18
 2ac:	00000000 	nop
 2b0:	00000000 	nop
 2b4:	00240000 	0x240000
 2b8:	00010000 	sll	zero,at,0x0
 2bc:	00002454 	0x2454
 2c0:	00006400 	sll	t4,zero,0x10
 2c4:	61000100 	0x61000100
 2c8:	00000000 	nop
 2cc:	00000000 	nop
 2d0:	00000000 	nop
 2d4:	0000002b 	sltu	zero,zero,zero
 2d8:	2b540001 	slti	s4,k0,1
 2dc:	b4000000 	0xb4000000
 2e0:	01000000 	0x1000000
 2e4:	00b46100 	0xb46100
 2e8:	00c00000 	0xc00000
 2ec:	00040000 	sll	zero,a0,0x0
 2f0:	9f5401f3 	0x9f5401f3
 2f4:	00000000 	nop
 2f8:	00000000 	nop
 2fc:	00000000 	nop
 300:	0000002b 	sltu	zero,zero,zero
 304:	2b550001 	slti	s5,k0,1
 308:	b0000000 	0xb0000000
 30c:	01000000 	0x1000000
 310:	00b06200 	0xb06200
 314:	00c00000 	0xc00000
 318:	00040000 	sll	zero,a0,0x0
 31c:	9f5501f3 	0x9f5501f3
 320:	00000000 	nop
 324:	00000000 	nop
 328:	00000000 	nop
 32c:	0000002b 	sltu	zero,zero,zero
 330:	2b560001 	slti	s6,k0,1
 334:	b8000000 	swr	zero,0(zero)
 338:	01000000 	0x1000000
 33c:	00b86000 	0xb86000
 340:	00c00000 	0xc00000
 344:	00040000 	sll	zero,a0,0x0
 348:	9f5601f3 	0x9f5601f3
 34c:	00000000 	nop
 350:	00000000 	nop
 354:	00000004 	sllv	zero,zero,zero
 358:	00000054 	0x54
 35c:	68910002 	0x68910002
 360:	00000054 	0x54
 364:	00000087 	0x87
 368:	00750002 	0x750002
 36c:	00000087 	0x87
 370:	000000b8 	0xb8
 374:	68910002 	0x68910002
 378:	000000b8 	0xb8
 37c:	000000c0 	ehb
 380:	688d0002 	0x688d0002
 384:	00000000 	nop
 388:	00000000 	nop
 38c:	0000003c 	0x3c
 390:	0000004c 	syscall	0x1
 394:	9f4c0002 	0x9f4c0002
 398:	00000060 	0x60
 39c:	00000068 	0x68
 3a0:	68520001 	0x68520001
 3a4:	74000000 	jalx	0 <hardware_exit_hook>
 3a8:	09000000 	j	4000000 <__memory_size+0x3fe0800>
 3ac:	00733100 	0x733100
 3b0:	2324321c 	addi	a0,t9,12828
 3b4:	00749f1c 	0x749f1c
 3b8:	00870000 	0x870000
 3bc:	00080000 	sll	zero,t0,0x0
 3c0:	fc090073 	sdc3	$9,115(zero)
 3c4:	9f1c231e 	0x9f1c231e
 3c8:	00000000 	nop
 3cc:	00000000 	nop
 3d0:	00000004 	sllv	zero,zero,zero
 3d4:	0000004c 	syscall	0x1
 3d8:	9f300002 	0x9f300002
 3dc:	00000060 	0x60
 3e0:	00000087 	0x87
 3e4:	00530001 	0x530001
 3e8:	00000000 	nop
 3ec:	c0000000 	ll	zero,0(zero)
 3f0:	c7000000 	lwc1	$f0,0(t8)
 3f4:	01000000 	0x1000000
 3f8:	00c75400 	0xc75400
 3fc:	00c80000 	0xc80000
 400:	00040000 	sll	zero,a0,0x0
 404:	9f5401f3 	0x9f5401f3
 408:	00000000 	nop
 40c:	00000000 	nop
 410:	000000c0 	ehb
 414:	000000c7 	0xc7
 418:	c7550001 	lwc1	$f21,1(k0)
 41c:	c8000000 	lwc2	$0,0(zero)
 420:	04000000 	bltz	zero,424 <ABIFlags_flags2+0x410>
 424:	5501f300 	bnel	t0,at,ffffd028 <__flash_start+0x403fd028>
 428:	0000009f 	0x9f
 42c:	00000000 	nop
 430:	0000c000 	sll	t8,zero,0x0
 434:	0000c700 	sll	t8,zero,0x1c
 438:	56000100 	bnezl	s0,83c <ABIFlags_flags2+0x828>
 43c:	000000c7 	0xc7
 440:	000000c8 	0xc8
 444:	01f30004 	sllv	zero,s3,t7
 448:	00009f56 	0x9f56
 44c:	00000000 	nop
 450:	00c80000 	0xc80000
 454:	01100000 	0x1100000
 458:	00010000 	sll	zero,at,0x0
 45c:	00011054 	0x11054
 460:	00011800 	sll	v1,at,0x0
 464:	60000100 	0x60000100
 468:	00000118 	0x118
 46c:	0000011c 	0x11c
 470:	1c540001 	0x1c540001
 474:	24000001 	li	zero,1
 478:	01000001 	movf	zero,t0,$fcc0
 47c:	01246000 	0x1246000
 480:	01280000 	0x1280000
 484:	00010000 	sll	zero,at,0x0
 488:	00012854 	0x12854
 48c:	00013000 	sll	a2,at,0x0
 490:	60000100 	0x60000100
 494:	00000130 	tge	zero,zero,0x4
 498:	00000134 	teq	zero,zero,0x4
 49c:	34540001 	ori	s4,v0,0x1
 4a0:	50000001 	beqzl	zero,4a8 <ABIFlags_flags2+0x494>
 4a4:	01000001 	movf	zero,t0,$fcc0
 4a8:	01506000 	0x1506000
 4ac:	01540000 	0x1540000
 4b0:	00010000 	sll	zero,at,0x0
 4b4:	00015454 	0x15454
 4b8:	00015c00 	sll	t3,at,0x10
 4bc:	60000100 	0x60000100
 4c0:	0000015c 	0x15c
 4c4:	00000164 	0x164
 4c8:	64540001 	0x64540001
 4cc:	7c000001 	0x7c000001
 4d0:	01000001 	movf	zero,t0,$fcc0
 4d4:	017c6000 	0x17c6000
 4d8:	01840000 	0x1840000
 4dc:	00010000 	sll	zero,at,0x0
 4e0:	00018454 	0x18454
 4e4:	00019000 	sll	s2,at,0x0
 4e8:	60000100 	0x60000100
 4ec:	00000190 	0x190
 4f0:	000001a4 	0x1a4
 4f4:	a4540001 	sh	s4,1(v0)
 4f8:	b4000001 	0xb4000001
 4fc:	01000001 	movf	zero,t0,$fcc0
 500:	01b46000 	0x1b46000
 504:	01c30000 	0x1c30000
 508:	00010000 	sll	zero,at,0x0
 50c:	0001c354 	0x1c354
 510:	00020800 	sll	at,v0,0x0
 514:	60000100 	0x60000100
 518:	00000208 	0x208
 51c:	0000020c 	syscall	0x8
 520:	0c540001 	jal	1500004 <__memory_size+0x14e0804>
 524:	14000002 	bnez	zero,530 <ABIFlags_flags2+0x51c>
 528:	01000002 	0x1000002
 52c:	02146000 	0x2146000
 530:	02180000 	0x2180000
 534:	00010000 	sll	zero,at,0x0
 538:	00021854 	0x21854
 53c:	00022000 	sll	a0,v0,0x0
 540:	60000100 	0x60000100
 544:	00000220 	0x220
 548:	00000224 	0x224
 54c:	24540001 	addiu	s4,v0,1
 550:	2c000002 	sltiu	zero,zero,2
 554:	01000002 	0x1000002
 558:	022c6000 	0x22c6000
 55c:	02340000 	0x2340000
 560:	00010000 	sll	zero,at,0x0
 564:	00023454 	0x23454
 568:	00024000 	sll	t0,v0,0x0
 56c:	60000100 	0x60000100
 570:	00000240 	sll	zero,zero,0x9
 574:	00000248 	0x248
 578:	48540001 	0x48540001
 57c:	54000002 	bnezl	zero,588 <ABIFlags_flags2+0x574>
 580:	01000002 	0x1000002
 584:	02546000 	0x2546000
 588:	025c0000 	0x25c0000
 58c:	00010000 	sll	zero,at,0x0
 590:	00025c54 	0x25c54
 594:	00026800 	sll	t5,v0,0x0
 598:	60000100 	0x60000100
 59c:	00000268 	0x268
 5a0:	00000270 	tge	zero,zero,0x9
 5a4:	70540001 	maddu	v0,s4
 5a8:	7c000002 	0x7c000002
 5ac:	01000002 	0x1000002
 5b0:	027c6000 	0x27c6000
 5b4:	02840000 	0x2840000
 5b8:	00010000 	sll	zero,at,0x0
 5bc:	00028454 	0x28454
 5c0:	00028c00 	sll	s1,v0,0x10
 5c4:	60000100 	0x60000100
 5c8:	0000028c 	syscall	0xa
 5cc:	00000294 	0x294
 5d0:	94540001 	lhu	s4,1(v0)
 5d4:	a0000002 	sb	zero,2(zero)
 5d8:	01000002 	0x1000002
 5dc:	02a06000 	0x2a06000
 5e0:	02a80000 	0x2a80000
 5e4:	00010000 	sll	zero,at,0x0
 5e8:	0002a854 	0x2a854
 5ec:	0002b400 	sll	s6,v0,0x10
 5f0:	60000100 	0x60000100
 5f4:	000002b4 	teq	zero,zero,0xa
 5f8:	000002bc 	0x2bc
 5fc:	bc540001 	cache	0x14,1(v0)
 600:	c8000002 	lwc2	$0,2(zero)
 604:	01000002 	0x1000002
 608:	02c86000 	0x2c86000
 60c:	02d00000 	0x2d00000
 610:	00010000 	sll	zero,at,0x0
 614:	0002d054 	0x2d054
 618:	0002dc00 	sll	k1,v0,0x10
 61c:	60000100 	0x60000100
 620:	000002dc 	0x2dc
 624:	000002e0 	0x2e0
 628:	e0540001 	sc	s4,1(v0)
 62c:	e8000002 	swc2	$0,2(zero)
 630:	01000002 	0x1000002
 634:	02e86000 	0x2e86000
 638:	02ec0000 	0x2ec0000
 63c:	00010000 	sll	zero,at,0x0
 640:	0002ec54 	0x2ec54
 644:	0002f400 	sll	s8,v0,0x10
 648:	60000100 	0x60000100
 64c:	000002f4 	teq	zero,zero,0xb
 650:	000002f8 	0x2f8
 654:	f8540001 	sdc2	$20,1(v0)
 658:	04000002 	bltz	zero,664 <ABIFlags_flags2+0x650>
 65c:	01000003 	0x1000003
 660:	03046000 	0x3046000
 664:	030c0000 	0x30c0000
 668:	00010000 	sll	zero,at,0x0
 66c:	00030c54 	0x30c54
 670:	00031800 	sll	v1,v1,0x0
 674:	60000100 	0x60000100
 678:	00000318 	0x318
 67c:	00000320 	0x320
 680:	20540001 	addi	s4,v0,1
 684:	2c000003 	sltiu	zero,zero,3
 688:	01000003 	0x1000003
 68c:	032c6000 	0x32c6000
 690:	03340000 	0x3340000
 694:	00010000 	sll	zero,at,0x0
 698:	00033454 	0x33454
 69c:	00034000 	sll	t0,v1,0x0
 6a0:	60000100 	0x60000100
 6a4:	00000340 	sll	zero,zero,0xd
 6a8:	00000348 	0x348
 6ac:	48540001 	0x48540001
 6b0:	54000003 	bnezl	zero,6c0 <ABIFlags_flags2+0x6ac>
 6b4:	01000003 	0x1000003
 6b8:	03546000 	0x3546000
 6bc:	03580000 	0x3580000
 6c0:	00010000 	sll	zero,at,0x0
 6c4:	00035854 	0x35854
 6c8:	0006b000 	sll	s6,a2,0x0
 6cc:	60000100 	0x60000100
 6d0:	000006b0 	tge	zero,zero,0x1a
 6d4:	000006b8 	0x6b8
 6d8:	01f30004 	sllv	zero,s3,t7
 6dc:	00009f54 	0x9f54
 6e0:	00000000 	nop
 6e4:	00c80000 	0xc80000
 6e8:	010c0000 	0x10c0000
 6ec:	00010000 	sll	zero,at,0x0
 6f0:	00010c55 	0x10c55
 6f4:	00011800 	sll	v1,at,0x0
 6f8:	f3000400 	0xf3000400
 6fc:	189f5501 	0x189f5501
 700:	3c000001 	lui	zero,0x1
 704:	01000001 	movf	zero,t0,$fcc0
 708:	013c5500 	0x13c5500
 70c:	01500000 	0x1500000
 710:	00040000 	sll	zero,a0,0x0
 714:	9f5501f3 	0x9f5501f3
 718:	00000150 	0x150
 71c:	00000160 	0x160
 720:	60550001 	0x60550001
 724:	7c000001 	0x7c000001
 728:	04000001 	bltz	zero,730 <ABIFlags_flags2+0x71c>
 72c:	5501f300 	bnel	t0,at,ffffd330 <__flash_start+0x403fd330>
 730:	00017c9f 	0x17c9f
 734:	00018000 	sll	s0,at,0x0
 738:	55000100 	bnezl	t0,b3c <ABIFlags_flags2+0xb28>
 73c:	00000180 	sll	zero,zero,0x6
 740:	00000190 	0x190
 744:	01f30004 	sllv	zero,s3,t7
 748:	01909f55 	0x1909f55
 74c:	01a40000 	0x1a40000
 750:	00010000 	sll	zero,at,0x0
 754:	0001a455 	0x1a455
 758:	0001b400 	sll	s6,at,0x10
 75c:	f3000400 	0xf3000400
 760:	b49f5501 	0xb49f5501
 764:	c3000001 	ll	zero,1(t8)
 768:	01000001 	movf	zero,t0,$fcc0
 76c:	01c35500 	0x1c35500
 770:	02080000 	0x2080000
 774:	00040000 	sll	zero,a0,0x0
 778:	9f5501f3 	0x9f5501f3
 77c:	00000208 	0x208
 780:	00000230 	tge	zero,zero,0x8
 784:	30550001 	andi	s5,v0,0x1
 788:	40000002 	mfc0	zero,c0_mvpconf0
 78c:	04000002 	bltz	zero,798 <ABIFlags_flags2+0x784>
 790:	5501f300 	bnel	t0,at,ffffd394 <__flash_start+0x403fd394>
 794:	0002409f 	0x2409f
 798:	00024400 	sll	t0,v0,0x10
 79c:	55000100 	bnezl	t0,ba0 <ABIFlags_flags2+0xb8c>
 7a0:	00000244 	0x244
 7a4:	00000254 	0x254
 7a8:	01f30004 	sllv	zero,s3,t7
 7ac:	02549f55 	0x2549f55
 7b0:	02580000 	0x2580000
 7b4:	00010000 	sll	zero,at,0x0
 7b8:	00025855 	0x25855
 7bc:	00026800 	sll	t5,v0,0x0
 7c0:	f3000400 	0xf3000400
 7c4:	689f5501 	0x689f5501
 7c8:	6c000002 	0x6c000002
 7cc:	01000002 	0x1000002
 7d0:	026c5500 	0x26c5500
 7d4:	027c0000 	0x27c0000
 7d8:	00040000 	sll	zero,a0,0x0
 7dc:	9f5501f3 	0x9f5501f3
 7e0:	0000027c 	0x27c
 7e4:	00000280 	sll	zero,zero,0xa
 7e8:	80550001 	lb	s5,1(v0)
 7ec:	8c000002 	lw	zero,2(zero)
 7f0:	04000002 	bltz	zero,7fc <ABIFlags_flags2+0x7e8>
 7f4:	5501f300 	bnel	t0,at,ffffd3f8 <__flash_start+0x403fd3f8>
 7f8:	00028c9f 	0x28c9f
 7fc:	00029000 	sll	s2,v0,0x0
 800:	55000100 	bnezl	t0,c04 <ABIFlags_flags2+0xbf0>
 804:	00000290 	0x290
 808:	000002a0 	0x2a0
 80c:	01f30004 	sllv	zero,s3,t7
 810:	02a09f55 	0x2a09f55
 814:	02a40000 	0x2a40000
 818:	00010000 	sll	zero,at,0x0
 81c:	0002a455 	0x2a455
 820:	0002b400 	sll	s6,v0,0x10
 824:	f3000400 	0xf3000400
 828:	b49f5501 	0xb49f5501
 82c:	b8000002 	swr	zero,2(zero)
 830:	01000002 	0x1000002
 834:	02b85500 	0x2b85500
 838:	02c80000 	0x2c80000
 83c:	00040000 	sll	zero,a0,0x0
 840:	9f5501f3 	0x9f5501f3
 844:	000002c8 	0x2c8
 848:	000002cc 	syscall	0xb
 84c:	cc550001 	pref	0x15,1(v0)
 850:	dc000002 	ldc3	$0,2(zero)
 854:	04000002 	bltz	zero,860 <ABIFlags_flags2+0x84c>
 858:	5501f300 	bnel	t0,at,ffffd45c <__flash_start+0x403fd45c>
 85c:	0002dc9f 	0x2dc9f
 860:	0002fc00 	sll	ra,v0,0x10
 864:	55000100 	bnezl	t0,c68 <ABIFlags_flags2+0xc54>
 868:	000002fc 	0x2fc
 86c:	00000304 	0x304
 870:	01f30004 	sllv	zero,s3,t7
 874:	03049f55 	0x3049f55
 878:	03080000 	0x3080000
 87c:	00010000 	sll	zero,at,0x0
 880:	00030855 	0x30855
 884:	00031800 	sll	v1,v1,0x0
 888:	f3000400 	0xf3000400
 88c:	189f5501 	0x189f5501
 890:	1c000003 	bgtz	zero,8a0 <ABIFlags_flags2+0x88c>
 894:	01000003 	0x1000003
 898:	031c5500 	0x31c5500
 89c:	032c0000 	0x32c0000
 8a0:	00040000 	sll	zero,a0,0x0
 8a4:	9f5501f3 	0x9f5501f3
 8a8:	0000032c 	0x32c
 8ac:	00000330 	tge	zero,zero,0xc
 8b0:	30550001 	andi	s5,v0,0x1
 8b4:	40000003 	mfc0	zero,c0_mvpconf1
 8b8:	04000003 	bltz	zero,8c8 <ABIFlags_flags2+0x8b4>
 8bc:	5501f300 	bnel	t0,at,ffffd4c0 <__flash_start+0x403fd4c0>
 8c0:	0003409f 	0x3409f
 8c4:	00034400 	sll	t0,v1,0x10
 8c8:	55000100 	bnezl	t0,ccc <ABIFlags_flags2+0xcb8>
 8cc:	00000344 	0x344
 8d0:	00000354 	0x354
 8d4:	01f30004 	sllv	zero,s3,t7
 8d8:	03549f55 	0x3549f55
 8dc:	035c0000 	0x35c0000
 8e0:	00010000 	sll	zero,at,0x0
 8e4:	00035c55 	0x35c55
 8e8:	0006b800 	sll	s7,a2,0x0
 8ec:	f3000400 	0xf3000400
 8f0:	009f5501 	0x9f5501
 8f4:	00000000 	nop
 8f8:	cc000000 	pref	0x0,0(zero)
 8fc:	08000001 	j	4 <ABIFlags_gpr_size>
 900:	01000002 	0x1000002
 904:	00006000 	sll	t4,zero,0x0
 908:	00000000 	nop
 90c:	00000000 	nop
 910:	00180000 	sll	zero,t8,0x0
 914:	00010000 	sll	zero,at,0x0
 918:	00001854 	0x1854
 91c:	00005000 	sll	t2,zero,0x0
 920:	f3000400 	0xf3000400
 924:	009f5401 	0x9f5401
 928:	00000000 	nop
 92c:	00000000 	nop
 930:	18000000 	blez	zero,934 <ABIFlags_flags2+0x920>
 934:	01000000 	0x1000000
 938:	00185500 	sll	t2,t8,0x14
 93c:	00500000 	0x500000
 940:	00040000 	sll	zero,a0,0x0
 944:	9f5501f3 	0x9f5501f3
 948:	00000000 	nop
 94c:	00000000 	nop
 950:	00000000 	nop
 954:	00000033 	tltu	zero,zero
 958:	33560001 	andi	s6,k0,0x1
 95c:	50000000 	beqzl	zero,960 <ABIFlags_flags2+0x94c>
 960:	04000000 	bltz	zero,964 <ABIFlags_flags2+0x950>
 964:	5601f300 	bnel	s0,at,ffffd568 <__flash_start+0x403fd568>
 968:	0000009f 	0x9f
 96c:	00000000 	nop
 970:	00000000 	nop
 974:	00000c00 	sll	at,zero,0x10
 978:	54000100 	bnezl	zero,d7c <ABIFlags_flags2+0xd68>
 97c:	0000000c 	syscall
 980:	00000014 	0x14
 984:	01f30004 	sllv	zero,s3,t7
 988:	00009f54 	0x9f54
 98c:	00000000 	nop
 990:	Address 0x0000000000000990 is out of bounds.


Disassembly of section .debug_ranges:

00000000 <.debug_ranges>:
   0:	00000018 	mult	zero,zero
   4:	0000001c 	0x1c
   8:	00000078 	0x78
   c:	000000e0 	0xe0
  10:	00000124 	0x124
  14:	0000014c 	syscall	0x5
  18:	00000000 	nop
  1c:	00000000 	nop
  20:	ffffffff 	sdc3	$31,-1(ra)
  24:	00000000 	nop
  28:	80000000 	lb	zero,0(zero)
  2c:	80000218 	lb	zero,536(zero)
  30:	800014b8 	lb	zero,5304(zero)
  34:	80001670 	lb	zero,5744(zero)
  38:	00000000 	nop
  3c:	00000000 	nop

Disassembly of section .reginfo:

00000000 <.reginfo>:
   0:	b20003fc 	0xb20003fc
   4:	00000000 	nop
   8:	00000000 	nop
   c:	00000000 	nop
  10:	00000000 	nop
  14:	80009fc8 	lb	zero,-24632(zero)

Disassembly of section .pdr:

00000000 <.pdr>:
   0:	8000021c 	lb	zero,540(zero)
   4:	00000000 	nop
   8:	00000000 	nop
   c:	00000000 	nop
  10:	00000000 	nop
  14:	00000000 	nop
  18:	00000000 	nop
  1c:	00000000 	nop
  20:	8000033c 	lb	zero,828(zero)
  24:	00000000 	nop
  28:	00000000 	nop
  2c:	00000000 	nop
  30:	00000000 	nop
  34:	00000000 	nop
  38:	00000000 	nop
  3c:	00000000 	nop
  40:	800003a4 	lb	zero,932(zero)
  44:	00000000 	nop
  48:	00000000 	nop
  4c:	00000000 	nop
  50:	00000000 	nop
  54:	00000000 	nop
  58:	00000000 	nop
  5c:	00000000 	nop
  60:	80000460 	lb	zero,1120(zero)
  64:	00000000 	nop
  68:	00000000 	nop
  6c:	00000000 	nop
  70:	00000000 	nop
  74:	00000000 	nop
  78:	00000000 	nop
  7c:	00000000 	nop
  80:	9fc00000 	0x9fc00000
  84:	00000000 	nop
  88:	00000000 	nop
  8c:	00000000 	nop
  90:	00000000 	nop
  94:	00000000 	nop
  98:	00000000 	nop
  9c:	00000000 	nop
  a0:	9fc00014 	0x9fc00014
  a4:	00000000 	nop
  a8:	00000000 	nop
  ac:	00000000 	nop
  b0:	00000000 	nop
  b4:	00000000 	nop
  b8:	00000000 	nop
  bc:	00000000 	nop
  c0:	9fc000a8 	0x9fc000a8
  c4:	00000000 	nop
  c8:	00000000 	nop
  cc:	00000000 	nop
  d0:	00000000 	nop
  d4:	00000000 	nop
  d8:	00000000 	nop
  dc:	00000000 	nop
  e0:	9fc00100 	0x9fc00100
  e4:	00000000 	nop
  e8:	00000000 	nop
  ec:	00000000 	nop
  f0:	00000000 	nop
  f4:	00000000 	nop
  f8:	00000000 	nop
  fc:	00000000 	nop
 100:	9fc00160 	0x9fc00160
 104:	00000000 	nop
 108:	00000000 	nop
 10c:	00000000 	nop
 110:	00000000 	nop
 114:	00000000 	nop
 118:	00000000 	nop
 11c:	00000000 	nop
 120:	9fc00288 	0x9fc00288
 124:	00000000 	nop
 128:	00000000 	nop
 12c:	00000000 	nop
 130:	00000000 	nop
 134:	00000000 	nop
 138:	00000000 	nop
 13c:	00000000 	nop
 140:	9fc00308 	0x9fc00308
 144:	00000000 	nop
 148:	00000000 	nop
 14c:	00000000 	nop
 150:	00000000 	nop
 154:	00000000 	nop
 158:	00000000 	nop
 15c:	00000000 	nop
 160:	80000644 	lb	zero,1604(zero)
 164:	c0000000 	ll	zero,0(zero)
 168:	fffffffc 	sdc3	$31,-4(ra)
 16c:	00000000 	nop
 170:	00000000 	nop
 174:	00000028 	0x28
 178:	0000001e 	0x1e
 17c:	0000001f 	0x1f
 180:	800006a4 	lb	zero,1700(zero)
 184:	40000000 	mfc0	zero,c0_index
 188:	fffffffc 	sdc3	$31,-4(ra)
 18c:	00000000 	nop
 190:	00000000 	nop
 194:	00000010 	mfhi	zero
 198:	0000001e 	0x1e
 19c:	0000001f 	0x1f
 1a0:	8000073c 	lb	zero,1852(zero)
 1a4:	80000000 	lb	zero,0(zero)
 1a8:	fffffffc 	sdc3	$31,-4(ra)
 1ac:	00000000 	nop
 1b0:	00000000 	nop
 1b4:	00000018 	mult	zero,zero
 1b8:	0000001d 	0x1d
 1bc:	0000001f 	0x1f
 1c0:	80000764 	lb	zero,1892(zero)
 1c4:	80010000 	lb	at,0(zero)
 1c8:	fffffffc 	sdc3	$31,-4(ra)
 1cc:	00000000 	nop
 1d0:	00000000 	nop
 1d4:	00000018 	mult	zero,zero
 1d8:	0000001d 	0x1d
 1dc:	0000001f 	0x1f
 1e0:	800007a0 	lb	zero,1952(zero)
 1e4:	801f0000 	lb	ra,0(zero)
 1e8:	fffffffc 	sdc3	$31,-4(ra)
 1ec:	00000000 	nop
 1f0:	00000000 	nop
 1f4:	00000028 	0x28
 1f8:	0000001d 	0x1d
 1fc:	0000001f 	0x1f
 200:	800008a8 	lb	zero,2216(zero)
 204:	c0ff0000 	ll	ra,0(a3)
 208:	fffffffc 	sdc3	$31,-4(ra)
 20c:	00000000 	nop
 210:	00000000 	nop
 214:	00000040 	ssnop
 218:	0000001d 	0x1d
 21c:	0000001f 	0x1f
 220:	80000a28 	lb	zero,2600(zero)
 224:	80070000 	lb	a3,0(zero)
 228:	fffffffc 	sdc3	$31,-4(ra)
 22c:	00000000 	nop
 230:	00000000 	nop
 234:	00000020 	add	zero,zero,zero
 238:	0000001d 	0x1d
 23c:	0000001f 	0x1f
 240:	80000a8c 	lb	zero,2700(zero)
 244:	00000000 	nop
 248:	00000000 	nop
 24c:	00000000 	nop
 250:	00000000 	nop
 254:	00000000 	nop
 258:	0000001d 	0x1d
 25c:	0000001f 	0x1f
 260:	80000a9c 	lb	zero,2716(zero)
 264:	00000000 	nop
 268:	00000000 	nop
 26c:	00000000 	nop
 270:	00000000 	nop
 274:	00000000 	nop
 278:	00000000 	nop
 27c:	00000000 	nop
 280:	80000000 	lb	zero,0(zero)
 284:	00000000 	nop
 288:	00000000 	nop
 28c:	00000000 	nop
 290:	00000000 	nop
 294:	00000000 	nop
 298:	00000000 	nop
 29c:	00000000 	nop
 2a0:	800014b8 	lb	zero,5304(zero)
 2a4:	00000000 	nop
 2a8:	00000000 	nop
 2ac:	00000000 	nop
 2b0:	00000000 	nop
 2b4:	000000b0 	tge	zero,zero,0x2
 2b8:	0000001d 	0x1d
 2bc:	00000000 	nop
 2c0:	80000b54 	lb	zero,2900(zero)
 2c4:	80070000 	lb	a3,0(zero)
 2c8:	fffffffc 	sdc3	$31,-4(ra)
 2cc:	00000000 	nop
 2d0:	00000000 	nop
 2d4:	00000028 	0x28
 2d8:	0000001d 	0x1d
 2dc:	0000001f 	0x1f
 2e0:	80000c14 	lb	zero,3092(zero)
 2e4:	00000000 	nop
 2e8:	00000000 	nop
 2ec:	00000000 	nop
 2f0:	00000000 	nop
 2f4:	00000000 	nop
 2f8:	0000001d 	0x1d
 2fc:	0000001f 	0x1f
 300:	80000c1c 	lb	zero,3100(zero)
 304:	80070000 	lb	a3,0(zero)
 308:	fffffffc 	sdc3	$31,-4(ra)
 30c:	00000000 	nop
 310:	00000000 	nop
 314:	00000020 	add	zero,zero,zero
 318:	0000001d 	0x1d
 31c:	0000001f 	0x1f
 320:	8000120c 	lb	zero,4620(zero)
 324:	00000000 	nop
 328:	00000000 	nop
 32c:	00000000 	nop
 330:	00000000 	nop
 334:	00000000 	nop
 338:	00000000 	nop
 33c:	00000000 	nop
 340:	800012c4 	lb	zero,4804(zero)
 344:	00000000 	nop
 348:	00000000 	nop
 34c:	00000000 	nop
 350:	00000000 	nop
 354:	00000000 	nop
 358:	00000000 	nop
 35c:	00000000 	nop
 360:	80001358 	lb	zero,4952(zero)
 364:	00000000 	nop
 368:	00000000 	nop
 36c:	00000000 	nop
 370:	00000000 	nop
 374:	00000000 	nop
 378:	00000000 	nop
 37c:	00000000 	nop
 380:	80001410 	lb	zero,5136(zero)
 384:	00000000 	nop
 388:	00000000 	nop
 38c:	00000000 	nop
 390:	00000000 	nop
 394:	00000000 	nop
 398:	00000000 	nop
 39c:	00000000 	nop
 3a0:	8000142c 	lb	zero,5164(zero)
 3a4:	00000000 	nop
 3a8:	00000000 	nop
 3ac:	00000000 	nop
 3b0:	00000000 	nop
 3b4:	00000000 	nop
 3b8:	00000000 	nop
 3bc:	00000000 	nop
 3c0:	80001448 	lb	zero,5192(zero)
 3c4:	80010000 	lb	at,0(zero)
 3c8:	fffffffc 	sdc3	$31,-4(ra)
 3cc:	00000000 	nop
 3d0:	00000000 	nop
 3d4:	00000020 	add	zero,zero,zero
 3d8:	0000001d 	0x1d
 3dc:	0000001f 	0x1f
 3e0:	80001498 	lb	zero,5272(zero)
 3e4:	00000000 	nop
 3e8:	00000000 	nop
 3ec:	00000000 	nop
 3f0:	00000000 	nop
 3f4:	00000000 	nop
 3f8:	0000001d 	0x1d
 3fc:	0000001f 	0x1f
 400:	800014ac 	lb	zero,5292(zero)
 404:	00000000 	nop
 408:	00000000 	nop
 40c:	00000000 	nop
 410:	00000000 	nop
 414:	00000000 	nop
 418:	0000001d 	0x1d
 41c:	0000001f 	0x1f

Disassembly of section .gnu.attributes:

00000000 <.gnu.attributes>:
   0:	00000f41 	0xf41
   4:	756e6700 	jalx	5b99c00 <__memory_size+0x5b7a400>
   8:	00070100 	sll	zero,a3,0x4
   c:	03040000 	0x3040000

Disassembly of section .comment:

00000000 <.comment>:
   0:	3a434347 	xori	v1,s2,0x4347
   4:	6f432820 	0x6f432820
   8:	63736564 	0x63736564
   c:	20657061 	addi	a1,v1,28769
  10:	20554e47 	addi	s5,v0,20039
  14:	6c6f6f54 	0x6c6f6f54
  18:	30322073 	andi	s2,at,0x2073
  1c:	302e3531 	andi	t6,at,0x3531
  20:	20372d31 	addi	s7,at,11569
  24:	20726f66 	addi	s2,v1,28518
  28:	5350494d 	beql	k0,s0,12560 <ABIFlags_flags2+0x1254c>
  2c:	49544d20 	0x49544d20
  30:	72614220 	0x72614220
  34:	654d2065 	0x654d2065
  38:	296c6174 	slti	t4,t3,24948
  3c:	392e3420 	xori	t6,t1,0x3420
  40:	Address 0x0000000000000040 is out of bounds.

